 GetNameInfo

 Timestamp is 5fb88485 (Sat Nov 21 11:07:49 2020)

 Preferred load address is 0000000000000000

 Start         Length     Name                   Class
 0001:00000000 0000010cH .text                   CODE
 0001:0000010c 0001ff0fH .text$mn                CODE
 0002:00000000 00000640H .data                   DATA
 0002:00000640 00004a40H .rdata                  DATA
 0002:00005080 0001c528H .bss                    DATA
 0002:000215a8 00000090H .rdata$zzzdbg           DATA
 0003:00000000 0000114cH .pdata                  DATA
 0004:00000000 00000b48H .xdata                  DATA

  Address         Publics by Value              Rva+Base               Lib:Object

 0000:00000000       __dynamic_value_reloc_table 0000000000000000     <absolute>
 0000:00000000       __guard_iat_count          0000000000000000     <absolute>
 0000:00000000       __guard_iat_table          0000000000000000     <absolute>
 0000:00000000       __guard_longjmp_table      0000000000000000     <absolute>
 0000:00000000       __guard_longjmp_count      0000000000000000     <absolute>
 0000:00000000       __guard_fids_count         0000000000000000     <absolute>
 0000:00000000       __guard_fids_table         0000000000000000     <absolute>
 0000:00000000       __guard_flags              0000000000000000     <absolute>
 0000:00000000       __ImageBase                0000000000000000     <linker-defined>
 0001:00000000       SetJump                    00000000000002a0     BaseLib:SetJump.obj
 0001:00000090       InternalLongJump           0000000000000330     BaseLib:LongJump.obj
 0001:0000010c       _ModuleEntryPoint          00000000000003ac f   UefiApplicationEntryPoint:ApplicationEntryPoint.obj
 0001:00000154       UefiBootServicesTableLibConstructor 00000000000003f4 f   UefiBootServicesTableLib:UefiBootServicesTableLib.obj
 0001:00000170       ProcessLibraryConstructorList 0000000000000410 f   GetNameInfo:AutoGen.obj
 0001:00000628       ProcessLibraryDestructorList 00000000000008c8 f   GetNameInfo:AutoGen.obj
 0001:000008cc       ProcessModuleEntryPointList 0000000000000b6c f   GetNameInfo:AutoGen.obj
 0001:000008f0       DebugPrint                 0000000000000b90 f   BaseDebugLibNull:DebugLib.obj
 0001:000008fc       DebugAssert                0000000000000b9c f   BaseDebugLibNull:DebugLib.obj
 0001:00000900       DebugPrintEnabled          0000000000000ba0 f   BaseDebugLibNull:DebugLib.obj
 0001:00000900       DebugAssertEnabled         0000000000000ba0 f   BaseDebugLibNull:DebugLib.obj
 0001:00000900       DebugPrintLevelEnabled     0000000000000ba0 f   BaseDebugLibNull:DebugLib.obj
 0001:00000904       ShellCEntryLib             0000000000000ba4 f   UefiShellCEntryLib:UefiShellCEntryLib.obj
 0001:000009b8       exitCleanup                0000000000000c58 f   LibC:Main.obj
 0001:00000a24       ShellAppMain               0000000000000cc4 f   LibC:Main.obj
 0001:00000ca8       __wchar_construct          0000000000000f48 f   LibWchar:ConsDecons.obj
 0001:00000cfc       __wchar_deconstruct        0000000000000f9c f   LibWchar:ConsDecons.obj
 0001:000010d0       da_ConOpen                 0000000000001370 f   DevConsole:daConsole.obj
 0001:0000131c       __Cons_construct           00000000000015bc f   DevConsole:daConsole.obj
 0001:00001524       __Cons_deconstruct         00000000000017c4 f   DevConsole:daConsole.obj
 0001:00001594       UefiRuntimeServicesTableLibConstructor 0000000000001834 f   UefiRuntimeServicesTableLib:UefiRuntimeServicesTableLib.obj
 0001:000015a4       fnullop_fcntl              0000000000001844 f   DevUtility:DevGenisis.obj
 0001:000015a4       UefiLibConstructor         0000000000001844 f   UefiLib:UefiLib.obj
 0001:000015a4       fnullop_flush              0000000000001844 f   DevUtility:DevGenisis.obj
 0001:000015a8       EfiGetCurrentTpl           0000000000001848 f   UefiLib:UefiLib.obj
 0001:000015d8       InternalPrint              0000000000001878 f   UefiLib:UefiLibPrint.obj
 0001:00001660       Print                      0000000000001900 f   UefiLib:UefiLibPrint.obj
 0001:00001690       ShellFindSE2               0000000000001930 f   UefiShellLib:UefiShellLib.obj
 0001:00001840       ShellLibConstructorWorker  0000000000001ae0 f   UefiShellLib:UefiShellLib.obj
 0001:00001ae0       ShellLibConstructor        0000000000001d80 f   UefiShellLib:UefiShellLib.obj
 0001:00001b14       ShellLibDestructor         0000000000001db4 f   UefiShellLib:UefiShellLib.obj
 0001:00001c28       ShellOpenFileByDevicePath  0000000000001ec8 f   UefiShellLib:UefiShellLib.obj
 0001:00001e5c       ShellOpenFileByName        00000000000020fc f   UefiShellLib:UefiShellLib.obj
 0001:0000207c       ShellFindFirstFile         000000000000231c f   UefiShellLib:UefiShellLib.obj
 0001:00002160       ShellIsFile                0000000000002400 f   UefiShellLib:UefiShellLib.obj
 0001:000021b0       UefiHiiServicesLibConstructor 0000000000002450 f   UefiHiiServicesLib:UefiHiiServicesLib.obj
 0001:00002808       da_ShellOpen               0000000000002aa8 f   DevShell:daShell.obj
 0001:00002da8       __ctor_DevShell            0000000000003048 f   DevShell:daShell.obj
 0001:00002ea4       __dtor_DevShell            0000000000003144 f   DevShell:daShell.obj
 0001:00002ee4       EslConstructor             0000000000003184 f   EfiSocketLib:Init.obj
 0001:00002eec       EslDestructor              000000000000318c f   EfiSocketLib:Init.obj
 0001:00002ef4       EslServiceFreeProtocol     0000000000003194 f   EfiSocketLib:UseEfiSocketLib.obj
 0001:00002fcc       EslServiceNetworkConnect   000000000000326c f   EfiSocketLib:UseEfiSocketLib.obj
 0001:000030e4       EslServiceNetworkDisconnect 0000000000003384 f   EfiSocketLib:UseEfiSocketLib.obj
 0001:000032e4       EslServiceConnect          0000000000003584 f   EfiSocketLib:Service.obj
 0001:00003508       EslSocket                  00000000000037a8 f   EfiSocketLib:Socket.obj
 0001:00003634       EslSocketAccept            00000000000038d4 f   EfiSocketLib:Socket.obj
 0001:00003820       EslSocketAllocate          0000000000003ac0 f   EfiSocketLib:Socket.obj
 0001:000039b8       EslSocketBind              0000000000003c58 f   EfiSocketLib:Socket.obj
 0001:00003b48       EslSocketBindTest          0000000000003de8 f   EfiSocketLib:Socket.obj
 0001:00003bd0       EslSocketClosePoll         0000000000003e70 f   EfiSocketLib:Socket.obj
 0001:00003cd8       EslSocketCloseStart        0000000000003f78 f   EfiSocketLib:Socket.obj
 0001:00003dc0       EslSocketConnect           0000000000004060 f   EfiSocketLib:Socket.obj
 0001:00004040       EslSocketCopyFragmentedBuffer 00000000000042e0 f   EfiSocketLib:Socket.obj
 0001:000040dc       EslSocketGetLocalAddress   000000000000437c f   EfiSocketLib:Socket.obj
 0001:0000427c       EslSocketGetPeerAddress    000000000000451c f   EfiSocketLib:Socket.obj
 0001:00004430       EslSocketIoFree            00000000000046d0 f   EfiSocketLib:Socket.obj
 0001:00004494       EslSocketIoInit            0000000000004734 f   EfiSocketLib:Socket.obj
 0001:00004544       EslSocketIsConfigured      00000000000047e4 f   EfiSocketLib:Socket.obj
 0001:000045dc       EslSocketListen            000000000000487c f   EfiSocketLib:Socket.obj
 0001:0000475c       EslSocketOptionGet         00000000000049fc f   EfiSocketLib:Socket.obj
 0001:000048f4       EslSocketOptionSet         0000000000004b94 f   EfiSocketLib:Socket.obj
 0001:00004a58       EslSocketPacketAllocate    0000000000004cf8 f   EfiSocketLib:Socket.obj
 0001:00004adc       EslSocketPoll              0000000000004d7c f   EfiSocketLib:Socket.obj
 0001:00004c74       EslSocketPortAllocate      0000000000004f14 f   EfiSocketLib:Socket.obj
 0001:00004ef4       EslSocketPortClose         0000000000005194 f   EfiSocketLib:Socket.obj
 0001:00005100       EslSocketPortCloseComplete 00000000000053a0 f   EfiSocketLib:Socket.obj
 0001:00005158       EslSocketPortCloseRxDone   00000000000053f8 f   EfiSocketLib:Socket.obj
 0001:000051a0       EslSocketPortCloseStart    0000000000005440 f   EfiSocketLib:Socket.obj
 0001:00005208       EslSocketPortCloseTxDone   00000000000054a8 f   EfiSocketLib:Socket.obj
 0001:000052a4       EslSocketReceive           0000000000005544 f   EfiSocketLib:Socket.obj
 0001:0000573c       EslSocketRxComplete        00000000000059dc f   EfiSocketLib:Socket.obj
 0001:000058b8       EslSocketRxStart           0000000000005b58 f   EfiSocketLib:Socket.obj
 0001:00005a00       EslSocketShutdown          0000000000005ca0 f   EfiSocketLib:Socket.obj
 0001:00005b24       EslSocketTransmit          0000000000005dc4 f   EfiSocketLib:Socket.obj
 0001:00005cdc       EslSocketTxComplete        0000000000005f7c f   EfiSocketLib:Socket.obj
 0001:00005de0       EslSocketTxStart           0000000000006080 f   EfiSocketLib:Socket.obj
 0001:00005eb0       EslTcp6Accept              0000000000006150 f   EfiSocketLib:Tcp6.obj
 0001:00005f34       EslTcp6ConnectComplete     00000000000061d4 f   EfiSocketLib:Tcp6.obj
 0001:00005fcc       EslTcp6ConnectPoll         000000000000626c f   EfiSocketLib:Tcp6.obj
 0001:00005fcc       EslTcp4ConnectPoll         000000000000626c f   EfiSocketLib:Tcp4.obj
 0001:00006184       EslTcp6ConnectStart        0000000000006424 f   EfiSocketLib:Tcp6.obj
 0001:00006290       EslTcp6Listen              0000000000006530 f   EfiSocketLib:Tcp6.obj
 0001:0000648c       EslTcp6ListenComplete      000000000000672c f   EfiSocketLib:Tcp6.obj
 0001:00006670       EslTcp6LocalAddressGet     0000000000006910 f   EfiSocketLib:Tcp6.obj
 0001:000066b4       EslTcp6LocalAddressSet     0000000000006954 f   EfiSocketLib:Tcp6.obj
 0001:0000674c       EslTcp4PacketFree          00000000000069ec f   EfiSocketLib:Tcp4.obj
 0001:0000674c       EslTcp6PacketFree          00000000000069ec f   EfiSocketLib:Tcp6.obj
 0001:00006754       EslTcp6PortAllocate        00000000000069f4 f   EfiSocketLib:Tcp6.obj
 0001:00006844       EslTcp6PortClose           0000000000006ae4 f   EfiSocketLib:Tcp6.obj
 0001:00006898       EslTcp6PortCloseOp         0000000000006b38 f   EfiSocketLib:Tcp6.obj
 0001:000068b8       EslTcp6Receive             0000000000006b58 f   EfiSocketLib:Tcp6.obj
 0001:00006984       EslTcp6RemoteAddressGet    0000000000006c24 f   EfiSocketLib:Tcp6.obj
 0001:000069c8       EslTcp6RemoteAddressSet    0000000000006c68 f   EfiSocketLib:Tcp6.obj
 0001:00006a0c       EslTcp6RxComplete          0000000000006cac f   EfiSocketLib:Tcp6.obj
 0001:00006a0c       EslTcp4RxComplete          0000000000006cac f   EfiSocketLib:Tcp4.obj
 0001:00006a34       EslTcp4RxStart             0000000000006cd4 f   EfiSocketLib:Tcp4.obj
 0001:00006a34       EslTcp6RxStart             0000000000006cd4 f   EfiSocketLib:Tcp6.obj
 0001:00006a5c       EslTcp6SocketIsConfigured  0000000000006cfc f   EfiSocketLib:Tcp6.obj
 0001:00006a5c       EslTcp4SocketIsConfigured  0000000000006cfc f   EfiSocketLib:Tcp4.obj
 0001:00006a78       EslTcp4TxBuffer            0000000000006d18 f   EfiSocketLib:Tcp4.obj
 0001:00006a78       EslTcp6TxBuffer            0000000000006d18 f   EfiSocketLib:Tcp6.obj
 0001:00006c90       EslTcp4TxComplete          0000000000006f30 f   EfiSocketLib:Tcp4.obj
 0001:00006c90       EslTcp6TxComplete          0000000000006f30 f   EfiSocketLib:Tcp6.obj
 0001:00006ce4       EslTcp6TxOobComplete       0000000000006f84 f   EfiSocketLib:Tcp6.obj
 0001:00006ce4       EslTcp4TxOobComplete       0000000000006f84 f   EfiSocketLib:Tcp4.obj
 0001:00006d40       EslTcp6VerifyLocalIpAddress 0000000000006fe0 f   EfiSocketLib:Tcp6.obj
 0001:00006fc8       EslIp4LocalAddressGet      0000000000007268 f   EfiSocketLib:Ip4.obj
 0001:00006fe8       EslIp4LocalAddressSet      0000000000007288 f   EfiSocketLib:Ip4.obj
 0001:00007090       EslIp4OptionGet            0000000000007330 f   EfiSocketLib:Ip4.obj
 0001:000070c4       EslIp4OptionSet            0000000000007364 f   EfiSocketLib:Ip4.obj
 0001:000070e8       EslIp4PacketFree           0000000000007388 f   EfiSocketLib:Ip4.obj
 0001:0000710c       EslIp4PortAllocate         00000000000073ac f   EfiSocketLib:Ip4.obj
 0001:000071a4       EslIp4Receive              0000000000007444 f   EfiSocketLib:Ip4.obj
 0001:00007270       EslIp4RemoteAddressGet     0000000000007510 f   EfiSocketLib:Ip4.obj
 0001:00007290       EslIp4RemoteAddressSet     0000000000007530 f   EfiSocketLib:Ip4.obj
 0001:000072c8       EslIp4RxComplete           0000000000007568 f   EfiSocketLib:Ip4.obj
 0001:000072f0       EslIp4SocketIsConfigured   0000000000007590 f   EfiSocketLib:Ip4.obj
 0001:00007498       EslIp4TxBuffer             0000000000007738 f   EfiSocketLib:Ip4.obj
 0001:000076d0       EslIp4TxComplete           0000000000007970 f   EfiSocketLib:Ip4.obj
 0001:000076d0       EslUdp6TxComplete          0000000000007970 f   EfiSocketLib:Udp6.obj
 0001:00007730       EslIp4VerifyLocalIpAddress 00000000000079d0 f   EfiSocketLib:Ip4.obj
 0001:00007864       EslTcp4Accept              0000000000007b04 f   EfiSocketLib:Tcp4.obj
 0001:00007904       EslTcp4ConnectComplete     0000000000007ba4 f   EfiSocketLib:Tcp4.obj
 0001:0000799c       EslTcp4ConnectStart        0000000000007c3c f   EfiSocketLib:Tcp4.obj
 0001:00007aa4       EslTcp4Listen              0000000000007d44 f   EfiSocketLib:Tcp4.obj
 0001:00007ca0       EslTcp4ListenComplete      0000000000007f40 f   EfiSocketLib:Tcp4.obj
 0001:00007e78       EslTcp4LocalAddressGet     0000000000008118 f   EfiSocketLib:Tcp4.obj
 0001:00007ebc       EslTcp4LocalAddressSet     000000000000815c f   EfiSocketLib:Tcp4.obj
 0001:00007fcc       EslTcp4PortAllocate        000000000000826c f   EfiSocketLib:Tcp4.obj
 0001:000080bc       EslTcp4PortClose           000000000000835c f   EfiSocketLib:Tcp4.obj
 0001:00008110       EslTcp4PortCloseOp         00000000000083b0 f   EfiSocketLib:Tcp4.obj
 0001:00008130       EslTcp4Receive             00000000000083d0 f   EfiSocketLib:Tcp4.obj
 0001:000081fc       EslTcp4RemoteAddressGet    000000000000849c f   EfiSocketLib:Tcp4.obj
 0001:00008240       EslTcp4RemoteAddressSet    00000000000084e0 f   EfiSocketLib:Tcp4.obj
 0001:000082b4       EslTcp4VerifyLocalIpAddress 0000000000008554 f   EfiSocketLib:Tcp4.obj
 0001:000083e8       EslUdp4LocalAddressGet     0000000000008688 f   EfiSocketLib:Udp4.obj
 0001:0000842c       EslUdp4LocalAddressSet     00000000000086cc f   EfiSocketLib:Udp4.obj
 0001:00008530       EslUdp4PacketFree          00000000000087d0 f   EfiSocketLib:Udp4.obj
 0001:00008554       EslUdp4PortAllocate        00000000000087f4 f   EfiSocketLib:Udp4.obj
 0001:000085d4       EslUdp4Receive             0000000000008874 f   EfiSocketLib:Udp4.obj
 0001:00008670       EslUdp4RemoteAddressGet    0000000000008910 f   EfiSocketLib:Udp4.obj
 0001:000086b4       EslUdp4RemoteAddressSet    0000000000008954 f   EfiSocketLib:Udp4.obj
 0001:00008708       EslUdp4RxComplete          00000000000089a8 f   EfiSocketLib:Udp4.obj
 0001:0000872c       EslUdp4SocketIsConfigured  00000000000089cc f   EfiSocketLib:Udp4.obj
 0001:000088cc       EslUdp4TxBuffer            0000000000008b6c f   EfiSocketLib:Udp4.obj
 0001:00008ad8       EslUdp4TxComplete          0000000000008d78 f   EfiSocketLib:Udp4.obj
 0001:00008b38       EslUdp4VerifyLocalIpAddress 0000000000008dd8 f   EfiSocketLib:Udp4.obj
 0001:00008c6c       EslUdp6LocalAddressGet     0000000000008f0c f   EfiSocketLib:Udp6.obj
 0001:00008cb0       EslUdp6LocalAddressSet     0000000000008f50 f   EfiSocketLib:Udp6.obj
 0001:00008d3c       EslUdp6PacketFree          0000000000008fdc f   EfiSocketLib:Udp6.obj
 0001:00008d60       EslUdp6PortAllocate        0000000000009000 f   EfiSocketLib:Udp6.obj
 0001:00008dd8       EslUdp6Receive             0000000000009078 f   EfiSocketLib:Udp6.obj
 0001:00008e74       EslUdp6RemoteAddressGet    0000000000009114 f   EfiSocketLib:Udp6.obj
 0001:00008eb8       EslUdp6RemoteAddressSet    0000000000009158 f   EfiSocketLib:Udp6.obj
 0001:00008efc       EslUdp6RxComplete          000000000000919c f   EfiSocketLib:Udp6.obj
 0001:00008f20       EslUdp6SocketIsConfigured  00000000000091c0 f   EfiSocketLib:Udp6.obj
 0001:000090c4       EslUdp6TxBuffer            0000000000009364 f   EfiSocketLib:Udp6.obj
 0001:000092bc       EslUdp6VerifyLocalIpAddress 000000000000955c f   EfiSocketLib:Udp6.obj
 0001:00009544       main                       00000000000097e4 f   GetNameInfo:GetNameInfo.obj
 0001:00009710       fbadop_rmdir               00000000000099b0 f   DevUtility:DevGenisis.obj
 0001:00009710       fbadop_mkdir               00000000000099b0 f   DevUtility:DevGenisis.obj
 0001:00009710       fbadop_rename              00000000000099b0 f   DevUtility:DevGenisis.obj
 0001:00009710       fbadop_delete              00000000000099b0 f   DevUtility:DevGenisis.obj
 0001:00009710       fbadop_ioctl               00000000000099b0 f   DevUtility:DevGenisis.obj
 0001:00009710       fbadop_stat                00000000000099b0 f   DevUtility:DevGenisis.obj
 0001:00009720       __DevRegister              00000000000099c0 f   DevUtility:DevGenisis.obj
 0001:000097ec       ClassifyPath               0000000000009a8c f   DevUtility:Path.obj
 0001:000098d4       NormalizePath              0000000000009b74 f   DevUtility:Path.obj
 0001:00009954       ParsePath                  0000000000009bf4 f   DevUtility:Path.obj
 0001:00009d28       __DevSearch                0000000000009fc8 f   DevUtility:DevSearch.obj
 0001:00009ddc       ValidateFD                 000000000000a07c f   LibUefi:SysCalls.obj
 0001:00009e08       FindFreeFD                 000000000000a0a8 f   LibUefi:SysCalls.obj
 0001:00009e48       isatty                     000000000000a0e8 f   LibUefi:SysCalls.obj
 0001:00009e8c       close                      000000000000a12c f   LibUefi:SysCalls.obj
 0001:00009f58       lseek                      000000000000a1f8 f   LibUefi:SysCalls.obj
 0001:00009fcc       open                       000000000000a26c f   LibUefi:SysCalls.obj
 0001:0000a124       fstat                      000000000000a3c4 f   LibUefi:SysCalls.obj
 0001:0000a174       read                       000000000000a414 f   LibUefi:SysCalls.obj
 0001:0000a200       write                      000000000000a4a0 f   LibUefi:SysCalls.obj
 0001:0000a294       EFI2errno                  000000000000a534 f   LibUefi:Xform.obj
 0001:0000add4       time                       000000000000b074 f   LibTime:Time.obj
 0001:0000ae8c       gmtsub                     000000000000b12c f   LibTime:Time.obj
 0001:0000b004       Efi2Time                   000000000000b2a4 f   LibTime:TimeEfi.obj
 0001:0000b070       Time2Efi                   000000000000b310 f   LibTime:TimeEfi.obj
 0001:0000ba28       tzset                      000000000000bcc8 f   LibTime:ZoneProc.obj
 0001:0000bdc4       DecodeOneStateful          000000000000c064 f   LibLocale:multibyte_Utf8.obj
 0001:0000be68       OneWcToMcLen               000000000000c108 f   LibLocale:multibyte_Utf8.obj
 0001:0000beb0       EstimateWtoM               000000000000c150 f   LibLocale:multibyte_Utf8.obj
 0001:0000bf08       EncodeUtf8                 000000000000c1a8 f   LibLocale:multibyte_Utf8.obj
 0001:0000bfb4       wcrtomb                    000000000000c254 f   LibLocale:multibyte_Utf8.obj
 0001:0000bff8       wcsrtombs                  000000000000c298 f   LibLocale:multibyte_Utf8.obj
 0001:0000c374       AsciiSPrint                000000000000c614 f   BasePrintLib:PrintLib.obj
 0001:0000c39c       BasePrintLibFillBuffer     000000000000c63c f   BasePrintLib:PrintLibInternal.obj
 0001:0000c3d0       BasePrintLibValueToString  000000000000c670 f   BasePrintLib:PrintLibInternal.obj
 0001:0000c420       BasePrintLibSPrintMarker   000000000000c6c0 f   BasePrintLib:PrintLibInternal.obj
 0001:0000d1b0       BasePrintLibSPrint         000000000000d450 f   BasePrintLib:PrintLibInternal.obj
 0001:0000d1d4       printf                     000000000000d474 f   LibStdio:printf.obj
 0001:0000d204       snprintf                   000000000000d4a4 f   LibStdio:snprintf.obj
 0001:0000d590       __vfprintf_unlocked        000000000000d830 f   LibStdio:vfprintf.obj
 0001:000105d0       __sfp                      0000000000010870 f   LibStdio:findfp.obj
 0001:0001076c       _cleanup                   0000000000010a0c f   LibStdio:findfp.obj
 0001:00010778       __sinit                    0000000000010a18 f   LibStdio:findfp.obj
 0001:000107c0       __swsetup                  0000000000010a60 f   LibStdio:wsetup.obj
 0001:00010878       fflush                     0000000000010b18 f   LibStdio:fflush.obj
 0001:000108a4       __sflush                   0000000000010b44 f   LibStdio:fflush.obj
 0001:0001092c       __sfvwrite                 0000000000010bcc f   LibStdio:fvwrite.obj
 0001:00010c24       __sread                    0000000000010ec4 f   LibStdio:stdio.obj
 0001:00010c6c       __swrite                   0000000000010f0c f   LibStdio:stdio.obj
 0001:00010cdc       __sseek                    0000000000010f7c f   LibStdio:stdio.obj
 0001:00010d2c       __sclose                   0000000000010fcc f   LibStdio:stdio.obj
 0001:00010d48       __smakebuf                 0000000000010fe8 f   LibStdio:makebuf.obj
 0001:00010e14       __swhatbuf                 00000000000110b4 f   LibStdio:makebuf.obj
 0001:00010eb4       _fwalk                     0000000000011154 f   LibStdio:fwalk.obj
 0001:00010f24       abort                      00000000000111c4 f   LibStdLib:Environs.obj
 0001:00010fa4       exit                       0000000000011244 f   LibStdLib:Environs.obj
 0001:00010fd8       getenv                     0000000000011278 f   LibStdLib:Environs.obj
 0001:00011048       malloc                     00000000000112e8 f   LibStdLib:Malloc.obj
 0001:0001110c       calloc                     00000000000113ac f   LibStdLib:Malloc.obj
 0001:0001114c       free                       00000000000113ec f   LibStdLib:Malloc.obj
 0001:000111bc       realloc                    000000000001145c f   LibStdLib:Malloc.obj
 0001:0001129c       InternalAllocatePool       000000000001153c f   UefiMemoryAllocationLib:MemoryAllocationLib.obj
 0001:000112cc       AllocateZeroPool           000000000001156c f   UefiMemoryAllocationLib:MemoryAllocationLib.obj
 0001:000112f4       AllocateCopyPool           0000000000011594 f   UefiMemoryAllocationLib:MemoryAllocationLib.obj
 0001:0001132c       __assert                   00000000000115cc f   LibC:assert.obj
 0001:000118c4       New_cIIO                   0000000000011b64 f   LibIIO:IIO.obj
 0001:000119c0       IIO_GetDeviceProto         0000000000011c60 f   LibIIO:IIOutilities.obj
 0001:00011a00       IIO_GetCursorPosition      0000000000011ca0 f   LibIIO:IIOutilities.obj
 0001:00011a6c       IIO_SetCursorPosition      0000000000011d0c f   LibIIO:IIOutilities.obj
 0001:00011af8       IIO_GetOutputSize          0000000000011d98 f   LibIIO:IIOutilities.obj
 0001:00011ba8       IIO_WriteOne               0000000000011e48 f   LibIIO:IIOwrite.obj
 0001:00011de8       IIO_EchoOne                0000000000012088 f   LibIIO:IIOecho.obj
 0001:00011ff8       IIO_CanonRead              0000000000012298 f   LibIIO:CanonRead.obj
 0001:0001231c       FileHandleGetInfo          00000000000125bc f   UefiFileHandleLib:UefiFileHandleLib.obj
 0001:000123a4       FileHandleSetInfo          0000000000012644 f   UefiFileHandleLib:UefiFileHandleLib.obj
 0001:000123cc       FileHandleRead             000000000001266c f   UefiFileHandleLib:UefiFileHandleLib.obj
 0001:000123e0       FileHandleWrite            0000000000012680 f   UefiFileHandleLib:UefiFileHandleLib.obj
 0001:000123f4       FileHandleClose            0000000000012694 f   UefiFileHandleLib:UefiFileHandleLib.obj
 0001:00012408       FileHandleDelete           00000000000126a8 f   UefiFileHandleLib:UefiFileHandleLib.obj
 0001:0001241c       FileHandleSetPosition      00000000000126bc f   UefiFileHandleLib:UefiFileHandleLib.obj
 0001:00012430       FileHandleGetPosition      00000000000126d0 f   UefiFileHandleLib:UefiFileHandleLib.obj
 0001:0001244c       FileHandleFlush            00000000000126ec f   UefiFileHandleLib:UefiFileHandleLib.obj
 0001:00012460       FileHandleIsDirectory      0000000000012700 f   UefiFileHandleLib:UefiFileHandleLib.obj
 0001:000124ac       FileHandleGetSize          000000000001274c f   UefiFileHandleLib:UefiFileHandleLib.obj
 0001:00012500       getnameinfo                00000000000127a0 f   BsdSocketLib:getnameinfo.obj
 0001:00012b04       nsdispatch                 0000000000012da4 f   BsdSocketLib:getaddrinfo.obj
 0001:00012b0c       freeaddrinfo               0000000000012dac f   BsdSocketLib:getaddrinfo.obj
 0001:00012b48       getaddrinfo                0000000000012de8 f   BsdSocketLib:getaddrinfo.obj
 0001:00014590       gethostbyaddr              0000000000014830 f   BsdSocketLib:gethostnamadr.obj
 0001:00014690       sethostent                 0000000000014930 f   BsdSocketLib:gethostnamadr.obj
 0001:000146e4       setservent                 0000000000014984 f   BsdSocketLib:getservent.obj
 0001:00014738       getservent                 00000000000149d8 f   BsdSocketLib:getservent.obj
 0001:000148b8       __res_query                0000000000014b58 f   BsdSocketLib:res_query.obj
 0001:00014a44       __hostalias                0000000000014ce4 f   BsdSocketLib:res_query.obj
 0001:00014bb8       __res_init                 0000000000014e58 f   BsdSocketLib:res_init.obj
 0001:000154d4       __res_send                 0000000000015774 f   BsdSocketLib:res_send.obj
 0001:00016568       __res_close                0000000000016808 f   BsdSocketLib:res_send.obj
 0001:00016598       __res_mkquery              0000000000016838 f   BsdSocketLib:res_mkquery.obj
 0001:00016708       __dn_expand                00000000000169a8 f   BsdSocketLib:res_comp.obj
 0001:00016888       __res_hnok                 0000000000016b28 f   BsdSocketLib:res_comp.obj
 0001:00016904       __res_dnok                 0000000000016ba4 f   BsdSocketLib:res_comp.obj
 0001:00016924       getservbyname              0000000000016bc4 f   BsdSocketLib:getservbyname.obj
 0001:000169dc       BslFdToSocketProtocol      0000000000016c7c f   BsdSocketLib:socket.obj
 0001:00016a44       socket                     0000000000016ce4 f   BsdSocketLib:socket.obj
 0001:00016ddc       gethostent                 000000000001707c f   BsdSocketLib:gethostbyht.obj
 0001:0001753c       _gethostbydnsaddr          00000000000177dc f   BsdSocketLib:gethostbydns.obj
 0001:00017744       sendto                     00000000000179e4 f   BsdSocketLib:sendto.obj
 0001:00017830       recvfrom                   0000000000017ad0 f   BsdSocketLib:recvfrom.obj
 0001:00017a68       connect                    0000000000017d08 f   BsdSocketLib:connect.obj
 0001:00017de8       __fp_nquery                0000000000018088 f   BsdSocketLib:res_debug.obj
 0001:00018274       __sym_ntos                 0000000000018514 f   BsdSocketLib:res_debug.obj
 0001:00018344       __loc_ntoa                 00000000000185e4 f   BsdSocketLib:res_debug.obj
 0001:000186a0       __p_secstodate             0000000000018940 f   BsdSocketLib:res_debug.obj
 0001:00018730       __ns_name_ntop             00000000000189d0 f   BsdSocketLib:ns_name.obj
 0001:000188dc       __ns_name_pack             0000000000018b7c f   BsdSocketLib:ns_name.obj
 0001:00018b5c       __ns_name_compress         0000000000018dfc f   BsdSocketLib:ns_name.obj
 0001:00018d1c       BslSocketClose             0000000000018fbc f   BsdSocketLib:close.obj
 0001:00018db4       BslSocketPoll              0000000000019054 f   BsdSocketLib:poll.obj
 0001:00018e08       BslSocketRead              00000000000190a8 f   BsdSocketLib:read.obj
 0001:00018e2c       BslSocketWrite             00000000000190cc f   BsdSocketLib:write.obj
 0001:00018e4c       _map_v4v6_address          00000000000190ec f   BsdSocketLib:map_v4v6.obj
 0001:00018e94       _map_v4v6_hostent          0000000000019134 f   BsdSocketLib:map_v4v6.obj
 0001:00018fd0       __ns_initparse             0000000000019270 f   BsdSocketLib:ns_parse.obj
 0001:0001910c       __ns_parserr               00000000000193ac f   BsdSocketLib:ns_parse.obj
 0001:000192f8       __ns_format_ttl            0000000000019598 f   BsdSocketLib:ns_ttl.obj
 0001:00019514       __ns_sprintrrf             00000000000197b4 f   BsdSocketLib:ns_print.obj
 0001:0001abe0       __b64_ntop                 000000000001ae80 f   BsdSocketLib:base64.obj
 0001:0001ae24       inet_ntop                  000000000001b0c4 f   LibNetUtil:inet_ntop.obj
 0001:0001b15c       inet_aton                  000000000001b3fc f   LibNetUtil:inet_addr.obj
 0001:0001b3a0       inet_ntoa                  000000000001b640 f   LibNetUtil:inet_ntoa.obj
 0001:0001b680       localeconv                 000000000001b920 f   LibLocale:localeconv.obj
 0001:0001b760       __dtoa                     000000000001ba00 f   LibGdtoa:dtoa.obj
 0001:0001c518       __nrv_alloc_D2A            000000000001c7b8 f   LibGdtoa:dmisc.obj
 0001:0001c5a4       __quorem_D2A               000000000001c844 f   LibGdtoa:dmisc.obj
 0001:0001c6ec       __Balloc_D2A               000000000001c98c f   LibGdtoa:misc.obj
 0001:0001c790       __lo0bits_D2A              000000000001ca30 f   LibGdtoa:misc.obj
 0001:0001c804       __multadd_D2A              000000000001caa4 f   LibGdtoa:misc.obj
 0001:0001c8d4       __hi0bits_D2A              000000000001cb74 f   LibGdtoa:misc.obj
 0001:0001c924       __mult_D2A                 000000000001cbc4 f   LibGdtoa:misc.obj
 0001:0001ca54       __pow5mult_D2A             000000000001ccf4 f   LibGdtoa:misc.obj
 0001:0001cb28       __lshift_D2A               000000000001cdc8 f   LibGdtoa:misc.obj
 0001:0001cc38       __cmp_D2A                  000000000001ced8 f   LibGdtoa:misc.obj
 0001:0001cc7c       __diff_D2A                 000000000001cf1c f   LibGdtoa:misc.obj
 0001:0001cdb4       __d2b_D2A                  000000000001d054 f   LibGdtoa:misc.obj
 0001:0001ced4       fopen                      000000000001d174 f   LibStdio:fopen.obj
 0001:0001cf64       fclose                     000000000001d204 f   LibStdio:fclose.obj
 0001:0001d048       fgets                      000000000001d2e8 f   LibStdio:fgets.obj
 0001:0001d12c       setbuf                     000000000001d3cc f   LibStdio:setbuf.obj
 0001:0001d1d0       sprintf                    000000000001d470 f   LibStdio:sprintf.obj
 0001:0001d23c       fprintf                    000000000001d4dc f   LibStdio:fprintf.obj
 0001:0001d274       __swbuf                    000000000001d514 f   LibStdio:wbuf.obj
 0001:0001d334       fputs                      000000000001d5d4 f   LibStdio:fputs.obj
 0001:0001d3d4       __srefill                  000000000001d674 f   LibStdio:refill.obj
 0001:0001d4ec       fseeko                     000000000001d78c f   LibStdio:fseeko.obj
 0001:0001d790       atoi                       000000000001da30 f   LibStdLib:NumericInt.obj
 0001:0001d834       strtoul                    000000000001dad4 f   LibStdLib:NumericInt.obj
 0001:0001de5c       New_cFIFO                  000000000001e0fc f   LibContainer:Fifo.obj
 0001:0001df4c       isascii                    000000000001e1ec f   LibCtype:CClass.obj
 0001:0001df58       memset                     000000000001e1f8 f   LibString:Misc.obj
 0001:0001df68       strerror                   000000000001e208 f   LibString:Misc.obj
 0001:0001df9c       strerror_r                 000000000001e23c f   LibString:Misc.obj
 0001:0001e004       strlen                     000000000001e2a4 f   LibString:Misc.obj
 0001:0001e00c       memcpy                     000000000001e2ac f   LibString:Copying.obj
 0001:0001e014       strcpy                     000000000001e2b4 f   LibString:Copying.obj
 0001:0001e01c       strdup                     000000000001e2bc f   LibString:Copying.obj
 0001:0001e06c       strncpy                    000000000001e30c f   LibString:Copying.obj
 0001:0001e074       strncpyX                   000000000001e314 f   LibString:Copying.obj
 0001:0001e0b4       memcmp                     000000000001e354 f   LibString:Comparison.obj
 0001:0001e0bc       strcasecmp                 000000000001e35c f   LibString:Comparison.obj
 0001:0001e0c4       strcmp                     000000000001e364 f   LibString:Comparison.obj
 0001:0001e0cc       strncmp                    000000000001e36c f   LibString:Comparison.obj
 0001:0001e0d4       AsciiStrCmp                000000000001e374 f   BaseLib:String.obj
 0001:0001e16c       AsciiStrCpy                000000000001e40c f   BaseLib:String.obj
 0001:0001e22c       AsciiStrDecimalToUintn     000000000001e4cc f   BaseLib:String.obj
 0001:0001e248       AsciiStrLen                000000000001e4e8 f   BaseLib:String.obj
 0001:0001e2d0       AsciiStrToUnicodeStr       000000000001e570 f   BaseLib:String.obj
 0001:0001e418       AsciiStriCmp               000000000001e6b8 f   BaseLib:String.obj
 0001:0001e4f8       AsciiStrnCmp               000000000001e798 f   BaseLib:String.obj
 0001:0001e5ec       AsciiStrnCpy               000000000001e88c f   BaseLib:String.obj
 0001:0001e708       InternalAsciiIsDecimalDigitCharacter 000000000001e9a8 f   BaseLib:String.obj
 0001:0001e714       StrCmp                     000000000001e9b4 f   BaseLib:String.obj
 0001:0001e7c8       StrLen                     000000000001ea68 f   BaseLib:String.obj
 0001:0001e880       StrSize                    000000000001eb20 f   BaseLib:String.obj
 0001:0001e898       StrStr                     000000000001eb38 f   BaseLib:String.obj
 0001:0001e974       StrnCat                    000000000001ec14 f   BaseLib:String.obj
 0001:0001ea04       StrnCmp                    000000000001eca4 f   BaseLib:String.obj
 0001:0001eb14       StrnCpy                    000000000001edb4 f   BaseLib:String.obj
 0001:0001ec68       UnicodeStrToAsciiStr       000000000001ef08 f   BaseLib:String.obj
 0001:0001edd4       ReadUnaligned16            000000000001f074 f   BaseLib:Unaligned.obj
 0001:0001ee0c       ReadUnaligned32            000000000001f0ac f   BaseLib:Unaligned.obj
 0001:0001ee44       ReadUnaligned64            000000000001f0e4 f   BaseLib:Unaligned.obj
 0001:0001ee7c       AsciiStrDecimalToUintnS    000000000001f11c f   BaseLib:SafeString.obj
 0001:0001effc       AsciiStrnLenS              000000000001f29c f   BaseLib:SafeString.obj
 0001:0001f028       StrnLenS                   000000000001f2c8 f   BaseLib:SafeString.obj
 0001:0001f0a4       GetFirstNode               000000000001f344 f   BaseLib:LinkedList.obj
 0001:0001f0e4       GetNextNode                000000000001f384 f   BaseLib:LinkedList.obj
 0001:0001f15c       InsertTailList             000000000001f3fc f   BaseLib:LinkedList.obj
 0001:0001f1e4       InternalBaseLibIsListValid 000000000001f484 f   BaseLib:LinkedList.obj
 0001:0001f29c       IsListEmpty                000000000001f53c f   BaseLib:LinkedList.obj
 0001:0001f2e0       IsNodeInList               000000000001f580 f   BaseLib:LinkedList.obj
 0001:0001f388       RemoveEntryList            000000000001f628 f   BaseLib:LinkedList.obj
 0001:0001f3dc       PathCleanUpDirectories     000000000001f67c f   BaseLib:FilePaths.obj
 0001:0001f538       PathRemoveLastItem         000000000001f7d8 f   BaseLib:FilePaths.obj
 0001:0001f594       LShiftU64                  000000000001f834 f   BaseLib:LShiftU64.obj
 0001:0001f5e0       SwapBytes16                000000000001f880 f   BaseLib:SwapBytes16.obj
 0001:0001f5f0       DivU64x32Remainder         000000000001f890 f   BaseLib:DivU64x32Remainder.obj
 0001:0001f648       InternalAssertJumpBuffer   000000000001f8e8 f   BaseLib:SetJump.obj
 0001:0001f6a4       InternalMathDivRemU64x32   000000000001f944 f   BaseLib:Math64.obj
 0001:0001f6c0       InternalMathLShiftU64      000000000001f960 f   BaseLib:Math64.obj
 0001:0001f6cc       SwapBytes32                000000000001f96c f   BaseLib:SwapBytes32.obj
 0001:0001f700       CopyMem                    000000000001f9a0 f   BaseMemoryLib:CopyMemWrapper.obj
 0001:0001f7a8       CompareGuid                000000000001fa48 f   BaseMemoryLib:MemLibGuid.obj
 0001:0001f810       ZeroMem                    000000000001fab0 f   BaseMemoryLib:ZeroMemWrapper.obj
 0001:0001f890       SetMem                     000000000001fb30 f   BaseMemoryLib:SetMemWrapper.obj
 0001:0001f900       CompareMem                 000000000001fba0 f   BaseMemoryLib:CompareMemWrapper.obj
 0001:0001f9f4       InternalMemCopyMem         000000000001fc94 f   BaseMemoryLib:CopyMem.obj
 0001:0001fba8       InternalMemCompareMem      000000000001fe48 f   BaseMemoryLib:MemLibGeneric.obj
 0001:0001fbc8       InternalMemScanMem8        000000000001fe68 f   BaseMemoryLib:MemLibGeneric.obj
 0001:0001fbe0       InternalMemSetMem16        000000000001fe80 f   BaseMemoryLib:MemLibGeneric.obj
 0001:0001fc00       InternalMemZeroMem         000000000001fea0 f   BaseMemoryLib:MemLibGeneric.obj
 0001:0001fc08       InternalMemSetMem          000000000001fea8 f   BaseMemoryLib:SetMem.obj
 0001:0001fd4c       memchr                     000000000001ffec f   LibString:Searching.obj
 0001:0001fd5c       strchr                     000000000001fffc f   LibString:Searching.obj
 0001:0001fd74       strpbrk                    0000000000020014 f   LibString:Searching.obj
 0001:0001fdc4       strlcpy                    0000000000020064 f   LibString:strlcpy.obj
 0001:0001fe04       strsep                     00000000000200a4 f   LibString:strsep.obj
 0001:0001fe4c       LongJump                   00000000000200ec f   BaseLib:LongJump.obj
 0001:0001fe9c       SetMem16                   000000000002013c f   BaseMemoryLib:SetMem16Wrapper.obj
 0001:0001ff88       ScanMem8                   0000000000020228 f   BaseMemoryLib:ScanMem8Wrapper.obj
 0002:00000000       _cClass                    00000000000202c0     LibCtype:iCtype.obj
 0002:00000008       _uConvT                    00000000000202c8     LibCtype:iCtype.obj
 0002:00000010       _lConvT                    00000000000202d0     LibCtype:iCtype.obj
 0002:00000020       gEfiUnicodeCollation2ProtocolGuid 00000000000202e0     GetNameInfo:AutoGen.obj
 0002:00000030       gEfiShellEnvironment2ExtGuid 00000000000202f0     GetNameInfo:AutoGen.obj
 0002:00000040       gEfiFileInfoGuid           0000000000020300     GetNameInfo:AutoGen.obj
 0002:00000050       gEfiIp6ConfigProtocolGuid  0000000000020310     GetNameInfo:AutoGen.obj
 0002:00000060       gEfiHiiConfigRoutingProtocolGuid 0000000000020320     GetNameInfo:AutoGen.obj
 0002:00000070       gEfiUdp4ServiceBindingProtocolGuid 0000000000020330     GetNameInfo:AutoGen.obj
 0002:00000080       gEfiIp4Config2ProtocolGuid 0000000000020340     GetNameInfo:AutoGen.obj
 0002:00000090       gEfiHiiImageProtocolGuid   0000000000020350     GetNameInfo:AutoGen.obj
 0002:000000a0       gEfiIp4ServiceBindingProtocolGuid 0000000000020360     GetNameInfo:AutoGen.obj
 0002:000000b0       gEfiUdp6ProtocolGuid       0000000000020370     GetNameInfo:AutoGen.obj
 0002:000000c0       gEfiShellParametersProtocolGuid 0000000000020380     GetNameInfo:AutoGen.obj
 0002:000000d0       gEfiHiiDatabaseProtocolGuid 0000000000020390     GetNameInfo:AutoGen.obj
 0002:000000e0       gEfiSimpleFileSystemProtocolGuid 00000000000203a0     GetNameInfo:AutoGen.obj
 0002:000000f0       gEfiHiiStringProtocolGuid  00000000000203b0     GetNameInfo:AutoGen.obj
 0002:00000100       gEfiUdp6ServiceBindingProtocolGuid 00000000000203c0     GetNameInfo:AutoGen.obj
 0002:00000110       gEfiShellEnvironment2Guid  00000000000203d0     GetNameInfo:AutoGen.obj
 0002:00000120       gEfiIp4ProtocolGuid        00000000000203e0     GetNameInfo:AutoGen.obj
 0002:00000130       gEfiSocketProtocolGuid     00000000000203f0     GetNameInfo:AutoGen.obj
 0002:00000140       gEfiShellProtocolGuid      0000000000020400     GetNameInfo:AutoGen.obj
 0002:00000150       gEfiUdp4ProtocolGuid       0000000000020410     GetNameInfo:AutoGen.obj
 0002:00000160       gEfiTcp4ServiceBindingProtocolGuid 0000000000020420     GetNameInfo:AutoGen.obj
 0002:00000170       gEfiCallerIdGuid           0000000000020430     GetNameInfo:AutoGen.obj
 0002:00000180       gEfiTcp6ServiceBindingProtocolGuid 0000000000020440     GetNameInfo:AutoGen.obj
 0002:00000190       gEfiTcp6ProtocolGuid       0000000000020450     GetNameInfo:AutoGen.obj
 0002:000001a0       gEfiShellInterfaceGuid     0000000000020460     GetNameInfo:AutoGen.obj
 0002:000001b0       gEfiTcp4ProtocolGuid       0000000000020470     GetNameInfo:AutoGen.obj
 0002:000001c0       gEfiHiiFontProtocolGuid    0000000000020480     GetNameInfo:AutoGen.obj
 0002:000001d0       _fltused                   0000000000020490     LibC:errno.obj
 0002:000001e0       cEslAfInet6Api             00000000000204a0     EfiSocketLib:Socket.obj
 0002:00000210       cEslAfInetApi              00000000000204d0     EfiSocketLib:Socket.obj
 0002:00000240       daDeviceList               0000000000020500     DevUtility:DevGenisis.obj
 0002:00000250       tzname                     0000000000020510     LibTime:ZoneProc.obj
 0002:00000280       __sF                       0000000000020540     LibStdio:findfp.obj
 0002:00000490       __sglue                    0000000000020750     LibStdio:findfp.obj
 0002:000005b0       _ns_flagdata               0000000000020870     BsdSocketLib:ns_parse.obj
 0002:00000630       __nlocale_changed          00000000000208f0     LibLocale:localeconv.obj
 0002:00000634       __mlocale_changed          00000000000208f4     LibLocale:localeconv.obj
 0002:00000640       _C_CharClassTable          0000000000020900     LibCtype:iCtype.obj
 0002:00000740       _C_ToLowerTable            0000000000020a00     LibCtype:iCtype.obj
 0002:000007c0       _C_ToUpperTable            0000000000020a80     LibCtype:iCtype.obj
 0002:00000840       ??_C@_0BD@FPJCFKFJ@Unknown?5Error?3?5?$CFd?4?$AA@ 0000000000020b00     LibString:Misc.obj
 0002:00000860       sys_errlist                0000000000020b20     LibString:ErrorList.obj
 0002:00000b80       ??_C@_0BC@CMDFCGIM@No?5Error?5Detected?$AA@ 0000000000020e40     LibString:ErrorList.obj
 0002:00000b98       ??_C@_0BI@BJFCGOHL@Operation?5not?5permitted?$AA@ 0000000000020e58     LibString:ErrorList.obj
 0002:00000bb0       ??_C@_0BK@FMDHKPNF@No?5such?5file?5or?5directory?$AA@ 0000000000020e70     LibString:ErrorList.obj
 0002:00000bd0       ??_C@_0BA@FKIAIBGA@No?5such?5process?$AA@ 0000000000020e90     LibString:ErrorList.obj
 0002:00000be0       ??_C@_0BI@EAGLFFDI@Interrupted?5system?5call?$AA@ 0000000000020ea0     LibString:ErrorList.obj
 0002:00000bf8       ??_C@_0BD@KKNFOBBD@Input?1output?5error?$AA@ 0000000000020eb8     LibString:ErrorList.obj
 0002:00000c10       ??_C@_0BG@IEPFGEGM@Device?5not?5configured?$AA@ 0000000000020ed0     LibString:ErrorList.obj
 0002:00000c28       ??_C@_0BH@CCELHCFA@Argument?5list?5too?5long?$AA@ 0000000000020ee8     LibString:ErrorList.obj
 0002:00000c40       ??_C@_0BC@HKPNECK@Exec?5format?5error?$AA@ 0000000000020f00     LibString:ErrorList.obj
 0002:00000c58       ??_C@_0BE@NFGDDCEF@Bad?5file?5descriptor?$AA@ 0000000000020f18     LibString:ErrorList.obj
 0002:00000c70       ??_C@_0BD@LOHELEP@No?5child?5processes?$AA@ 0000000000020f30     LibString:ErrorList.obj
 0002:00000c88       ??_C@_0BK@JAEBMJJM@Resource?5deadlock?5avoided?$AA@ 0000000000020f48     LibString:ErrorList.obj
 0002:00000ca8       ??_C@_0BH@DBCLIABC@Cannot?5allocate?5memory?$AA@ 0000000000020f68     LibString:ErrorList.obj
 0002:00000cc0       ??_C@_0BC@HFNFNKAI@Permission?5denied?$AA@ 0000000000020f80     LibString:ErrorList.obj
 0002:00000cd8       ??_C@_0M@LOEHLCJD@Bad?5address?$AA@ 0000000000020f98     LibString:ErrorList.obj
 0002:00000ce8       ??_C@_0BG@DDDDJJIM@Block?5device?5required?$AA@ 0000000000020fa8     LibString:ErrorList.obj
 0002:00000d00       ??_C@_0M@KEEOMFM@Device?5busy?$AA@ 0000000000020fc0     LibString:ErrorList.obj
 0002:00000d10       ??_C@_0M@NAAJNNGH@File?5exists?$AA@ 0000000000020fd0     LibString:ErrorList.obj
 0002:00000d20       ??_C@_0BC@OFBLDMPL@Cross?9device?5link?$AA@ 0000000000020fe0     LibString:ErrorList.obj
 0002:00000d38       ??_C@_0CC@BGJGOOF@Operation?5not?5supported?5by?5devic@ 0000000000020ff8     LibString:ErrorList.obj
 0002:00000d60       ??_C@_0BA@CJBACOOL@Not?5a?5directory?$AA@ 0000000000021020     LibString:ErrorList.obj
 0002:00000d70       ??_C@_0P@NDHGCGKE@Is?5a?5directory?$AA@ 0000000000021030     LibString:ErrorList.obj
 0002:00000d80       ??_C@_0BB@HMGGCEBG@Invalid?5argument?$AA@ 0000000000021040     LibString:ErrorList.obj
 0002:00000d98       ??_C@_0BO@IIFBODJE@Too?5many?5open?5files?5in?5system?$AA@ 0000000000021058     LibString:ErrorList.obj
 0002:00000db8       ??_C@_0BE@INBJMKGG@Too?5many?5open?5files?$AA@ 0000000000021078     LibString:ErrorList.obj
 0002:00000dd0       ??_C@_0BP@NAOGGPDI@Inappropriate?5ioctl?5for?5device?$AA@ 0000000000021090     LibString:ErrorList.obj
 0002:00000df0       ??_C@_0P@HJGPGMF@Text?5file?5busy?$AA@ 00000000000210b0     LibString:ErrorList.obj
 0002:00000e00       ??_C@_0P@LFMMIPAE@File?5too?5large?$AA@ 00000000000210c0     LibString:ErrorList.obj
 0002:00000e10       ??_C@_0BI@FEALHKLD@No?5space?5left?5on?5device?$AA@ 00000000000210d0     LibString:ErrorList.obj
 0002:00000e28       ??_C@_0N@JPKNIBBK@Illegal?5seek?$AA@ 00000000000210e8     LibString:ErrorList.obj
 0002:00000e38       ??_C@_0BF@JEDIFMJD@Read?9only?5filesystem?$AA@ 00000000000210f8     LibString:ErrorList.obj
 0002:00000e50       ??_C@_0P@PKCJJLLM@Too?5many?5links?$AA@ 0000000000021110     LibString:ErrorList.obj
 0002:00000e60       ??_C@_0M@LHEPIIOM@Broken?5pipe?$AA@ 0000000000021120     LibString:ErrorList.obj
 0002:00000e70       ??_C@_0CB@BNEAGFJG@Numerical?5argument?5out?5of?5domain@ 0000000000021130     LibString:ErrorList.obj
 0002:00000e98       ??_C@_0BB@FCBJFCAJ@Result?5too?5large?$AA@ 0000000000021158     LibString:ErrorList.obj
 0002:00000eb0       ??_C@_0CB@EPFKGNAK@Resource?5temporarily?5unavailable@ 0000000000021170     LibString:ErrorList.obj
 0002:00000ed8       ??_C@_0BK@LBMNDGCG@Operation?5now?5in?5progress?$AA@ 0000000000021198     LibString:ErrorList.obj
 0002:00000ef8       ??_C@_0BO@BMABNIPB@Operation?5already?5in?5progress?$AA@ 00000000000211b8     LibString:ErrorList.obj
 0002:00000f18       ??_C@_0BP@MCCLAMPH@Socket?5operation?5on?5non?9socket?$AA@ 00000000000211d8     LibString:ErrorList.obj
 0002:00000f38       ??_C@_0BN@HFCIEIME@Destination?5address?5required?$AA@ 00000000000211f8     LibString:ErrorList.obj
 0002:00000f58       ??_C@_0BB@NDAKHOCP@Message?5too?5long?$AA@ 0000000000021218     LibString:ErrorList.obj
 0002:00000f70       ??_C@_0BP@PDKJLOAE@Protocol?5wrong?5type?5for?5socket?$AA@ 0000000000021230     LibString:ErrorList.obj
 0002:00000f90       ??_C@_0BH@HPHKDMA@Protocol?5not?5available?$AA@ 0000000000021250     LibString:ErrorList.obj
 0002:00000fa8       ??_C@_0BH@JNBKLLAJ@Protocol?5not?5supported?$AA@ 0000000000021268     LibString:ErrorList.obj
 0002:00000fc0       ??_C@_0BK@LMAIHBL@Socket?5type?5not?5supported?$AA@ 0000000000021280     LibString:ErrorList.obj
 0002:00000fe0       ??_C@_0BI@EDJAHLMH@Operation?5not?5supported?$AA@ 00000000000212a0     LibString:ErrorList.obj
 0002:00000ff8       ??_C@_0BO@EBCCBLCJ@Protocol?5family?5not?5supported?$AA@ 00000000000212b8     LibString:ErrorList.obj
 0002:00001018       ??_C@_0DA@KDGLCJJO@Address?5family?5not?5supported?5by?5@ 00000000000212d8     LibString:ErrorList.obj
 0002:00001048       ??_C@_0BH@LOKACPE@Address?5already?5in?5use?$AA@ 0000000000021308     LibString:ErrorList.obj
 0002:00001060       ??_C@_0BP@OKMOKAIP@Can?8t?5assign?5requested?5address?$AA@ 0000000000021320     LibString:ErrorList.obj
 0002:00001080       ??_C@_0BA@LPIEBGEK@Network?5is?5down?$AA@ 0000000000021340     LibString:ErrorList.obj
 0002:00001090       ??_C@_0BH@CIEOBPFM@Network?5is?5unreachable?$AA@ 0000000000021350     LibString:ErrorList.obj
 0002:000010a8       ??_C@_0CE@JHDCOCF@Network?5dropped?5connection?5on?5re@ 0000000000021368     LibString:ErrorList.obj
 0002:000010d0       ??_C@_0CB@DJAOADN@Software?5caused?5connection?5abort@ 0000000000021390     LibString:ErrorList.obj
 0002:000010f8       ??_C@_0BJ@FJAMCHKE@Connection?5reset?5by?5peer?$AA@ 00000000000213b8     LibString:ErrorList.obj
 0002:00001118       ??_C@_0BK@OCAHGMEA@No?5buffer?5space?5available?$AA@ 00000000000213d8     LibString:ErrorList.obj
 0002:00001138       ??_C@_0BM@CCONNCKE@Socket?5is?5already?5connected?$AA@ 00000000000213f8     LibString:ErrorList.obj
 0002:00001158       ??_C@_0BI@ILAOGBJJ@Socket?5is?5not?5connected?$AA@ 0000000000021418     LibString:ErrorList.obj
 0002:00001170       ??_C@_0CB@IOOOMFJJ@Can?8t?5send?5after?5socket?5shutdown@ 0000000000021430     LibString:ErrorList.obj
 0002:00001198       ??_C@_0CC@HOLLLFLE@Too?5many?5references?3?5can?8t?5splic@ 0000000000021458     LibString:ErrorList.obj
 0002:000011c0       ??_C@_0BE@JAEOFJAL@Operation?5timed?5out?$AA@ 0000000000021480     LibString:ErrorList.obj
 0002:000011d8       ??_C@_0BD@NPDMPPFP@Connection?5refused?$AA@ 0000000000021498     LibString:ErrorList.obj
 0002:000011f0       ??_C@_0CC@CPDHMANB@Too?5many?5levels?5of?5symbolic?5link@ 00000000000214b0     LibString:ErrorList.obj
 0002:00001218       ??_C@_0BD@CGPKCNP@File?5name?5too?5long?$AA@ 00000000000214d8     LibString:ErrorList.obj
 0002:00001230       ??_C@_0N@OHOPOBEF@Host?5is?5down?$AA@ 00000000000214f0     LibString:ErrorList.obj
 0002:00001240       ??_C@_0BB@PFBILCPA@No?5route?5to?5host?$AA@ 0000000000021500     LibString:ErrorList.obj
 0002:00001258       ??_C@_0BE@ICMCHPHH@Directory?5not?5empty?$AA@ 0000000000021518     LibString:ErrorList.obj
 0002:00001270       ??_C@_0BD@LPHIGPM@Too?5many?5processes?$AA@ 0000000000021530     LibString:ErrorList.obj
 0002:00001288       ??_C@_0P@DAFGFIDC@Too?5many?5users?$AA@ 0000000000021548     LibString:ErrorList.obj
 0002:00001298       ??_C@_0BE@KMAIMPL@Disc?5quota?5exceeded?$AA@ 0000000000021558     LibString:ErrorList.obj
 0002:000012b0       ??_C@_0BG@KNCBNNDC@Stale?5NFS?5file?5handle?$AA@ 0000000000021570     LibString:ErrorList.obj
 0002:000012c8       ??_C@_0CC@DBGGHIAG@Too?5many?5levels?5of?5remote?5in?5pat@ 0000000000021588     LibString:ErrorList.obj
 0002:000012f0       ??_C@_0BC@ICCGLAJN@RPC?5struct?5is?5bad?$AA@ 00000000000215b0     LibString:ErrorList.obj
 0002:00001308       ??_C@_0BC@FIMLNFGC@RPC?5version?5wrong?$AA@ 00000000000215c8     LibString:ErrorList.obj
 0002:00001320       ??_C@_0BE@HDGMLIGJ@RPC?5prog?4?5not?5avail?$AA@ 00000000000215e0     LibString:ErrorList.obj
 0002:00001338       ??_C@_0BG@JOMPHNJI@Program?5version?5wrong?$AA@ 00000000000215f8     LibString:ErrorList.obj
 0002:00001350       ??_C@_0BK@LKNMDCLJ@Bad?5procedure?5for?5program?$AA@ 0000000000021610     LibString:ErrorList.obj
 0002:00001370       ??_C@_0BD@CLHBCGPB@No?5locks?5available?$AA@ 0000000000021630     LibString:ErrorList.obj
 0002:00001388       ??_C@_0BJ@IHEHINLI@Function?5not?5implemented?$AA@ 0000000000021648     LibString:ErrorList.obj
 0002:000013a8       ??_C@_0CC@GLJPLFOJ@Inappropriate?5file?5type?5or?5forma@ 0000000000021668     LibString:ErrorList.obj
 0002:000013d0       ??_C@_0BF@MOMJDFNI@Authentication?5error?$AA@ 0000000000021690     LibString:ErrorList.obj
 0002:000013e8       ??_C@_0BD@GDKJMNEO@Need?5authenticator?$AA@ 00000000000216a8     LibString:ErrorList.obj
 0002:00001400       ??_C@_0BD@LJPFLIMC@Identifier?5removed?$AA@ 00000000000216c0     LibString:ErrorList.obj
 0002:00001418       ??_C@_0BL@LAELPFGP@No?5message?5of?5desired?5type?$AA@ 00000000000216d8     LibString:ErrorList.obj
 0002:00001438       ??_C@_0CK@NDEHDADK@Value?5too?5large?5to?5be?5stored?5in?5@ 00000000000216f8     LibString:ErrorList.obj
 0002:00001468       ??_C@_0BG@KLEAJEFJ@Illegal?5byte?5sequence?$AA@ 0000000000021728     LibString:ErrorList.obj
 0002:00001480       ??_C@_0N@JIEBMMEB@Bad?5errno?586?$AA@ 0000000000021740     LibString:ErrorList.obj
 0002:00001490       ??_C@_0BD@OIDFIKFE@Operation?5canceled?$AA@ 0000000000021750     LibString:ErrorList.obj
 0002:000014a8       ??_C@_0M@OEPJJONH@Bad?5message?$AA@ 0000000000021768     LibString:ErrorList.obj
 0002:000014b8       ??_C@_0BF@GGKONPHM@No?5message?5available?$AA@ 0000000000021778     LibString:ErrorList.obj
 0002:000014d0       ??_C@_0BE@HNNMKAI@No?5STREAM?5resources?$AA@ 0000000000021790     LibString:ErrorList.obj
 0002:000014e8       ??_C@_0N@BFKFJNP@Not?5a?5STREAM?$AA@ 00000000000217a8     LibString:ErrorList.obj
 0002:000014f8       ??_C@_0BF@BKBOOGBB@STREAM?5ioctl?5timeout?$AA@ 00000000000217b8     LibString:ErrorList.obj
 0002:00001510       ??_C@_0BE@BOJAKOGO@Attribute?5not?5found?$AA@ 00000000000217d0     LibString:ErrorList.obj
 0002:00001528       ??_C@_0BC@MPFABHFK@Programming?5error?$AA@ 00000000000217e8     LibString:ErrorList.obj
 0002:00001540       ??_C@_0BD@BLOHNAGF@Multihop?5attempted?$AA@ 0000000000021800     LibString:ErrorList.obj
 0002:00001558       ??_C@_0BG@JIGCCAHA@Link?5has?5been?5severed?$AA@ 0000000000021818     LibString:ErrorList.obj
 0002:00001570       ??_C@_0P@NFDLBHIK@Protocol?5error?$AA@ 0000000000021830     LibString:ErrorList.obj
 0002:00001580       ??_C@_0CA@JBGHAFDD@Buffer?5too?5small?5to?5hold?5result?$AA@ 0000000000021840     LibString:ErrorList.obj
 0002:000015a0       ??_C@_0CO@BCOPOIDC@System?5Error?5list?5and?5errno?4h?5ar@ 0000000000021860     LibString:ErrorList.obj
 0002:000015d0       ??_C@_0DG@MFCDKOLN@g?3?2uefi_edk2_practice?2MdePkg?2Lib@ 0000000000021890     BaseLib:String.obj
 0002:00001608       ??_C@_0CI@LLKACKFD@?$CI?$CIUINTN?$CJ?5Destination?5?$CG?50x0000000@ 00000000000218c8     BaseLib:String.obj
 0002:00001630       ??_C@_0DA@MIOLHJCL@?$CIUINTN?$CJ?$CIDestination?5?9?5Source?$CJ?5?$DO?5@ 00000000000218f0     BaseLib:String.obj
 0002:00001660       ??_C@_0CI@FOLEBOJ@?$CIUINTN?$CJ?$CISource?5?9?5Destination?$CJ?5?$DO?$DN@ 0000000000021920     BaseLib:String.obj
 0002:00001688       ??_C@_0DL@LFIMEMJP@Length?5?$DM?$DN?5_gPcd_FixedAtBuild_Pcd@ 0000000000021948     BaseLib:String.obj
 0002:000016c8       ??_C@_0CD@BDCLIGHD@?$CI?$CIUINTN?$CJ?5String?5?$CG?50x00000001?$CJ?5?$DN?$DN@ 0000000000021988     BaseLib:String.obj
 0002:000016f0       ??_C@_0DK@EOJCOAME@Length?5?$DM?5_gPcd_FixedAtBuild_PcdM@ 00000000000219b0     BaseLib:String.obj
 0002:00001730       ??_C@_0BL@JAAMOCAJ@StrSize?5?$CIFirstString?$CJ?5?$CB?$DN?50?$AA@ 00000000000219f0     BaseLib:String.obj
 0002:00001750       ??_C@_0BM@DALBOILC@StrSize?5?$CISecondString?$CJ?5?$CB?$DN?50?$AA@ 0000000000021a10     BaseLib:String.obj
 0002:00001770       ??_C@_0BL@NAIOOBPB@StrSize?5?$CIDestination?$CJ?5?$CB?$DN?50?$AA@ 0000000000021a30     BaseLib:String.obj
 0002:00001790       ??_C@_0BG@KBNOLIGE@StrSize?5?$CIString?$CJ?5?$CB?$DN?50?$AA@ 0000000000021a50     BaseLib:String.obj
 0002:000017a8       ??_C@_0BM@NNBLOHJD@StrSize?5?$CISearchString?$CJ?5?$CB?$DN?50?$AA@ 0000000000021a68     BaseLib:String.obj
 0002:000017c8       ??_C@_0BG@JJELHOCA@StrSize?5?$CISource?$CJ?5?$CB?$DN?50?$AA@ 0000000000021a88     BaseLib:String.obj
 0002:000017e0       ??_C@_0DN@HIFCOCOI@?$CIUINTN?$CJ?5?$CIDestination?5?9?5?$CICHAR8?5?$CK?$CJ@ 0000000000021aa0     BaseLib:String.obj
 0002:00001820       ??_C@_0DL@LACPINOG@?$CIUINTN?$CJ?5?$CI?$CICHAR8?5?$CK?$CJ?5Source?5?9?5Dest@ 0000000000021ae0     BaseLib:String.obj
 0002:00001860       ??_C@_0BA@MFHLDCJH@?$CKSource?5?$DM?50x100?$AA@ 0000000000021b20     BaseLib:String.obj
 0002:00001870       ??_C@_0CA@FFIBMAAF@AsciiStrSize?5?$CIReturnValue?$CJ?5?$CB?$DN?50?$AA@ 0000000000021b30     BaseLib:String.obj
 0002:00001890       ??_C@_0DF@CDKFFDDI@?$CIUINTN?$CJ?$CIDestination?5?9?5Source?$CJ?5?$DO?5@ 0000000000021b50     BaseLib:String.obj
 0002:000018c8       ??_C@_0DF@CCGJKFCO@?$CIUINTN?$CJ?$CISource?5?9?5Destination?$CJ?5?$DO?5@ 0000000000021b88     BaseLib:String.obj
 0002:00001900       ??_C@_0DJ@JJHGIFMP@Length?5?$DM?$DN?5_gPcd_FixedAtBuild_Pcd@ 0000000000021bc0     BaseLib:String.obj
 0002:00001940       ??_C@_0DI@MDIKFADO@Length?5?$DM?5_gPcd_FixedAtBuild_PcdM@ 0000000000021c00     BaseLib:String.obj
 0002:00001978       ??_C@_0BL@IKFBNFIL@AsciiStrSize?5?$CIFirstString?$CJ?$AA@ 0000000000021c38     BaseLib:String.obj
 0002:00001998       ??_C@_0BM@EDNOKLLE@AsciiStrSize?5?$CISecondString?$CJ?$AA@ 0000000000021c58     BaseLib:String.obj
 0002:000019b8       ??_C@_0BL@NNBEMOEP@AsciiStrSize?5?$CISource?$CJ?5?$CB?$DN?50?$AA@ 0000000000021c78     BaseLib:String.obj
 0002:000019e0       ??_C@_0EA@ELKIMFNG@?$CIUINTN?$CJ?5?$CI?$CICHAR8?5?$CK?$CJ?5Destination?5?9@ 0000000000021ca0     BaseLib:String.obj
 0002:00001a20       ??_C@_0FG@JICIAIMJ@?$CIUINTN?$CJ?5?$CISource?5?9?5?$CICHAR8?5?$CK?$CJ?5Dest@ 0000000000021ce0     BaseLib:String.obj
 0002:00001a78       ??_C@_0BL@KAGEINIP@StrSize?5?$CIReturnValue?$CJ?5?$CB?$DN?50?$AA@ 0000000000021d38     BaseLib:String.obj
 0002:00001a98       ??_C@_0DJ@DIJFAOJH@g?3?2uefi_edk2_practice?2MdePkg?2Lib@ 0000000000021d58     BaseLib:Unaligned.obj
 0002:00001ad8       ??_C@_0N@KGHEHMDL@Divisor?5?$CB?$DN?50?$AA@ 0000000000021d98     BaseLib:DivU64x32.obj
 0002:00001ae8       ??_C@_0DK@GNKFIOKI@g?3?2uefi_edk2_practice?2MdePkg?2Lib@ 0000000000021da8     BaseLib:SafeString.obj
 0002:00001b28       ??_C@_0BJ@MBBOBCLN@?$CIString?5?$CB?$DN?5?$CI?$CIvoid?5?$CK?$CJ?50?$CJ?$CJ?$AA@ 0000000000021de8     BaseLib:SafeString.obj
 0002:00001b48       ??_C@_0BH@JPMEDPAI@?$CIData?5?$CB?$DN?5?$CI?$CIvoid?5?$CK?$CJ?50?$CJ?$CJ?$AA@ 0000000000021e08     BaseLib:SafeString.obj
 0002:00001b60       ??_C@_0ID@JMCCGBLD@?$CIAsciiStrnLenS?5?$CIString?0?5?$CI_gPcd_F@ 0000000000021e20     BaseLib:SafeString.obj
 0002:00001be8       ??_C@_0BF@NJNGJMPC@List?5?$CB?$DN?5?$CI?$CIvoid?5?$CK?$CJ?50?$CJ?$AA@ 0000000000021ea8     BaseLib:LinkedList.obj
 0002:00001c00       ??_C@_0DK@FPMEKHHB@g?3?2uefi_edk2_practice?2MdePkg?2Lib@ 0000000000021ec0     BaseLib:LinkedList.obj
 0002:00001c40       ??_C@_0CC@KDLPLAED@List?9?$DOForwardLink?5?$CB?$DN?5?$CI?$CIvoid?5?$CK?$CJ?50@ 0000000000021f00     BaseLib:LinkedList.obj
 0002:00001c68       ??_C@_0BP@IJJCCMAK@List?9?$DOBackLink?5?$CB?$DN?5?$CI?$CIvoid?5?$CK?$CJ?50?$CJ?$AA@ 0000000000021f28     BaseLib:LinkedList.obj
 0002:00001c88       ??_C@_0CI@BMHOPIIO@InternalBaseLibIsListValid?5?$CIFirs@ 0000000000021f48     BaseLib:LinkedList.obj
 0002:00001cb0       ??_C@_0BM@BAIHHOEP@SecondEntry?5?$CB?$DN?5?$CI?$CIvoid?5?$CK?$CJ?50?$CJ?$AA@ 0000000000021f70     BaseLib:LinkedList.obj
 0002:00001cd0       ??_C@_0DI@HOMAKAJD@?$CI?$CIBOOLEAN?$CJ?$CI0?$DN?$DN1?$CJ?$CJ?5?$DN?$DN?5IsNodeInLis@ 0000000000021f90     BaseLib:LinkedList.obj
 0002:00001d08       ??_C@_0CG@LGIALJFK@InternalBaseLibIsListValid?5?$CIList@ 0000000000021fc8     BaseLib:LinkedList.obj
 0002:00001d30       ??_C@_0CC@JLDICICM@InternalBaseLibIsListValid?5?$CIList@ 0000000000021ff0     BaseLib:LinkedList.obj
 0002:00001d58       ??_C@_0DD@OAAIDOJD@?$CI?$CIBOOLEAN?$CJ?$CI1?$DN?$DN1?$CJ?$CJ?5?$DN?$DN?5IsNodeInLis@ 0000000000022018     BaseLib:LinkedList.obj
 0002:00001d90       ??_C@_0BF@NMBJJECB@?$CBIsListEmpty?5?$CIEntry?$CJ?$AA@ 0000000000022050     BaseLib:LinkedList.obj
 0002:00001da8       ??_C@_17CECJBCED@?$AA?2?$AA?4?$AA?2?$AA?$AA@ 0000000000022068     BaseLib:FilePaths.obj
 0002:00001db0       ??_C@_15HFJMEONN@?$AA?2?$AA?4?$AA?$AA@ 0000000000022070     BaseLib:FilePaths.obj
 0002:00001db8       ??_C@_17OFBPHKFE@?$AA?2?$AA?4?$AA?4?$AA?$AA@ 0000000000022078     BaseLib:FilePaths.obj
 0002:00001dc0       ??_C@_15LEKKCGMK@?$AA?2?$AA?2?$AA?$AA@ 0000000000022080     BaseLib:FilePaths.obj
 0002:00001dc8       ??_C@_0L@MEMPDLHB@Count?5?$DM?564?$AA@ 0000000000022088     BaseLib:LShiftU64.obj
 0002:00001dd8       ??_C@_0DJ@KJENGIEM@g?3?2uefi_edk2_practice?2MdePkg?2Lib@ 0000000000022098     BaseLib:LShiftU64.obj
 0002:00001e20       ??_C@_0EC@LJCGBENK@g?3?2uefi_edk2_practice?2MdePkg?2Lib@ 00000000000220e0     BaseLib:DivU64x32Remainder.obj
 0002:00001e68       ??_C@_0BL@CPGKAMND@JumpBuffer?5?$CB?$DN?5?$CI?$CIvoid?5?$CK?$CJ?50?$CJ?$AA@ 0000000000022128     BaseLib:SetJump.obj
 0002:00001e88       ??_C@_0DH@IHFCELE@g?3?2uefi_edk2_practice?2MdePkg?2Lib@ 0000000000022148     BaseLib:SetJump.obj
 0002:00001ec0       ??_C@_0CD@OEHNCIHG@?$CI?$CIUINTN?$CJJumpBuffer?5?$CG?5?$CI8?5?9?51?$CJ?$CJ?5?$DN?$DN@ 0000000000022180     BaseLib:SetJump.obj
 0002:00001ef0       ??_C@_0ED@MKGCMJG@?$CILength?5?9?51?$CJ?5?$DM?$DN?5?$CI0xFFFFFFFFFFFFF@ 00000000000221b0     BaseMemoryLib:CopyMemWrapper.obj
 0002:00001f40       ??_C@_0EE@COAMBEJJ@g?3?2uefi_edk2_practice?2MdePkg?2Lib@ 0000000000022200     BaseMemoryLib:CopyMemWrapper.obj
 0002:00001f88       ??_C@_0DO@MAOBOFEG@?$CILength?5?9?51?$CJ?5?$DM?$DN?5?$CI0xFFFFFFFFFFFFF@ 0000000000022248     BaseMemoryLib:CopyMemWrapper.obj
 0002:00001fc8       ??_C@_0DG@EEENIGGL@Length?5?$DM?$DN?5?$CI0xFFFFFFFFFFFFFFFFULL@ 0000000000022288     BaseMemoryLib:MemLibGuid.obj
 0002:00002000       ??_C@_0EE@JKKOHFFO@g?3?2uefi_edk2_practice?2MdePkg?2Lib@ 00000000000222c0     BaseMemoryLib:ZeroMemWrapper.obj
 0002:00002048       ??_C@_0DI@DAGDPLPG@?$CILength?5?9?51?$CJ?5?$DM?$DN?5?$CI0xFFFFFFFFFFFFF@ 0000000000022308     BaseMemoryLib:SetMemWrapper.obj
 0002:00002080       ??_C@_0ED@FGINMKBB@g?3?2uefi_edk2_practice?2MdePkg?2Lib@ 0000000000022340     BaseMemoryLib:SetMemWrapper.obj
 0002:000020c8       ??_C@_0CC@JOEHDGKB@DestinationBuffer?5?$CB?$DN?5?$CI?$CIvoid?5?$CK?$CJ?50@ 0000000000022388     BaseMemoryLib:CompareMemWrapper.obj
 0002:000020f0       ??_C@_0EH@FNNCPHNN@g?3?2uefi_edk2_practice?2MdePkg?2Lib@ 00000000000223b0     BaseMemoryLib:CompareMemWrapper.obj
 0002:00002138       ??_C@_0BN@MDMCNBCC@SourceBuffer?5?$CB?$DN?5?$CI?$CIvoid?5?$CK?$CJ?50?$CJ?$AA@ 00000000000223f8     BaseMemoryLib:CompareMemWrapper.obj
 0002:00002158       ??_C@_0CO@LECKNDNC@?$CI?$CI?$CIUINTN?$CJBuffer?$CJ?5?$CG?5?$CIsizeof?5?$CIValu@ 0000000000022418     BaseMemoryLib:SetMem64Wrapper.obj
 0002:00002188       ??_C@_0CF@LEICOABD@?$CILength?5?$CG?5?$CIsizeof?5?$CIValue?$CJ?5?9?51?$CJ?$CJ?5@ 0000000000022448     BaseMemoryLib:SetMem64Wrapper.obj
 0002:000021b0       ??_C@_0L@KDHIOLNB@Value?5?$CB?$DN?50?$AA@ 0000000000022470     BaseLib:LongJump.obj
 0002:000021c0       ??_C@_0DI@IJCLEFAF@g?3?2uefi_edk2_practice?2MdePkg?2Lib@ 0000000000022480     BaseLib:LongJump.obj
 0002:00002200       ??_C@_0EF@LBDHAOLE@g?3?2uefi_edk2_practice?2MdePkg?2Lib@ 00000000000224c0     BaseMemoryLib:SetMem16Wrapper.obj
 0002:00002250       ??_C@_0EF@NMPMIHNL@g?3?2uefi_edk2_practice?2MdePkg?2Lib@ 0000000000022510     BaseMemoryLib:ScanMem8Wrapper.obj
 0002:00002298       ??_C@_0CB@DMEJJJHA@?6ASSERT_EFI_ERROR?5?$CIStatus?5?$DN?5?$CFr?$CJ?6@ 0000000000022558     GetNameInfo:AutoGen.obj
 0002:000022c0       ??_C@_0BE@DCHLEIGN@?$CBEFI_ERROR?5?$CIStatus?$CJ?$AA@ 0000000000022580     GetNameInfo:AutoGen.obj
 0002:000022e0       ??_C@_0HN@MEABHMIJ@g?3?2uefi_edk2_practice?2Build?2AppP@ 00000000000225a0     GetNameInfo:AutoGen.obj
 0002:00002360       _gPcd_FixedAtBuild_PcdMaximumLinkedListLength 0000000000022620     GetNameInfo:AutoGen.obj
 0002:00002364       _gPcd_FixedAtBuild_PcdMaximumUnicodeStringLength 0000000000022624     GetNameInfo:AutoGen.obj
 0002:00002368       _gPcd_FixedAtBuild_PcdMaximumAsciiStringLength 0000000000022628     GetNameInfo:AutoGen.obj
 0002:0000236c       _gPcd_FixedAtBuild_PcdVerifyNodeInList 000000000002262c     GetNameInfo:AutoGen.obj
 0002:00002370       ??_C@_06GCNMPELH@stdin?3?$AA@ 0000000000022630     LibC:Main.obj
 0002:00002378       ??_C@_07CJCKBFG@stdout?3?$AA@ 0000000000022638     LibC:Main.obj
 0002:00002380       ??_C@_07NBHIPNPM@stderr?3?$AA@ 0000000000022640     LibC:Main.obj
 0002:00002390       ??_C@_1FI@OEFNJEF@?$AAE?$AAR?$AAR?$AAO?$AAR?$AA?5?$AAI?$AAn?$AAi?$AAt?$AAi?$AAa?$AAl?$AAi?$AAz?$AAi?$AAn?$AAg?$AA?5?$AAS?$AAt?$AAa?$AAn?$AAd?$AAa?$AAr?$AAd?$AA?5?$AAI?$AAO?$AA?3?$AA?5@ 0000000000022650     LibC:Main.obj
 0002:000023e8       ??_C@_1O@CFMGMDFI@?$AAs?$AAt?$AAd?$AAi?$AAn?$AA?3?$AA?$AA@ 00000000000226a8     DevConsole:daConsole.obj
 0002:000023f8       ??_C@_1BA@PGAEEPHD@?$AAs?$AAt?$AAd?$AAo?$AAu?$AAt?$AA?3?$AA?$AA@ 00000000000226b8     DevConsole:daConsole.obj
 0002:00002408       ??_C@_1BA@DNLKDFLO@?$AAs?$AAt?$AAd?$AAe?$AAr?$AAr?$AA?3?$AA?$AA@ 00000000000226c8     DevConsole:daConsole.obj
 0002:00002448       ??_C@_0BH@IACGKAP@Buffer?5?$CB?$DN?5?$CI?$CIvoid?5?$CK?$CJ?50?$CJ?$AA@ 0000000000022708     UefiLib:UefiLibPrint.obj
 0002:00002460       ??_C@_17CLELIOII@?$AAN?$AAU?$AAL?$AA?$AA@ 0000000000022720     UefiShellLib:UefiShellLib.obj
 0002:00002468       ??_C@_19CIJIHAKK@?$AAN?$AAU?$AAL?$AAL?$AA?$AA@ 0000000000022728     UefiShellLib:UefiShellLib.obj
 0002:00002478       ??_C@_0BM@NLNKOJGD@Destination?5?$CB?$DN?5?$CI?$CIvoid?5?$CK?$CJ?50?$CJ?$AA@ 0000000000022738     UefiShellLib:UefiShellLib.obj
 0002:00002498       mEslUdp4ServiceGuid        0000000000022758     EfiSocketLib:UseEfiSocketLib.obj
 0002:000024a8       mEfiServiceBinding         0000000000022768     EfiSocketLib:UseEfiSocketLib.obj
 0002:000024b8       mEslUdp6ServiceGuid        0000000000022778     EfiSocketLib:UseEfiSocketLib.obj
 0002:000024c8       mEslTcp4ServiceGuid        0000000000022788     EfiSocketLib:UseEfiSocketLib.obj
 0002:000024d8       mEslTcp6ServiceGuid        0000000000022798     EfiSocketLib:UseEfiSocketLib.obj
 0002:000024e8       mEslIp4ServiceGuid         00000000000227a8     EfiSocketLib:UseEfiSocketLib.obj
 0002:00002500       cEslSocketBinding          00000000000227c0     EfiSocketLib:Socket.obj
 0002:00002640       ??_C@_17NIGEJLGH@?$AAI?$AAp?$AA4?$AA?$AA@ 0000000000022900     EfiSocketLib:Socket.obj
 0002:00002648       ??_C@_19IGIFHENE@?$AAT?$AAc?$AAp?$AA4?$AA?$AA@ 0000000000022908     EfiSocketLib:Socket.obj
 0002:00002658       ??_C@_19CMIMLMFP@?$AAT?$AAc?$AAp?$AA6?$AA?$AA@ 0000000000022918     EfiSocketLib:Socket.obj
 0002:00002668       ??_C@_19GDICBGPD@?$AAU?$AAd?$AAp?$AA4?$AA?$AA@ 0000000000022928     EfiSocketLib:Socket.obj
 0002:00002678       ??_C@_19MJILNOHI@?$AAU?$AAd?$AAp?$AA6?$AA?$AA@ 0000000000022938     EfiSocketLib:Socket.obj
 0002:00002690       cEslTcp6Api                0000000000022950     EfiSocketLib:Tcp6.obj
 0002:00002798       ??_C@_05NEBMLMBB@TCPv6?$AA@ 0000000000022a58     EfiSocketLib:Tcp6.obj
 0002:000027a0       cEslIp4Api                 0000000000022a60     EfiSocketLib:Ip4.obj
 0002:000028a8       ??_C@_04EMGFNKGN@IPv4?$AA@ 0000000000022b68     EfiSocketLib:Ip4.obj
 0002:000028b0       cEslTcp4Api                0000000000022b70     EfiSocketLib:Tcp4.obj
 0002:000029b8       ??_C@_05OGCKNOJD@TCPv4?$AA@ 0000000000022c78     EfiSocketLib:Tcp4.obj
 0002:000029c0       cEslUdp4Api                0000000000022c80     EfiSocketLib:Udp4.obj
 0002:00002ac8       ??_C@_05JPFGNBCG@UDPv4?$AA@ 0000000000022d88     EfiSocketLib:Udp4.obj
 0002:00002ad0       cEslUdp6Api                0000000000022d90     EfiSocketLib:Udp6.obj
 0002:00002bd8       ??_C@_05KNGALDKE@UDPv6?$AA@ 0000000000022e98     EfiSocketLib:Udp6.obj
 0002:00002be0       ??_C@_0CE@HCINCODJ@?$CFs?5?5?$DMhost?5address?$DO?5?5?$DMserver?5name@ 0000000000022ea0     GetNameInfo:GetNameInfo.obj
 0002:00002c08       ??_C@_0CM@LNNBNNBL@ERROR?5?9?5address?5info?5not?5found?0?5@ 0000000000022ec8     GetNameInfo:GetNameInfo.obj
 0002:00002c38       ??_C@_0CO@LIADLAHD@ERROR?5?9?5No?5address?5info?5structur@ 0000000000022ef8     GetNameInfo:GetNameInfo.obj
 0002:00002c68       ??_C@_0P@MFNFGAIA@?$CFs?3?5HostName?$AN?6?$AA@ 0000000000022f28     GetNameInfo:GetNameInfo.obj
 0002:00002c78       ??_C@_0BD@DCIJKFNP@?$CFs?3?5Service?5Name?$AN?6?$AA@ 0000000000022f38     GetNameInfo:GetNameInfo.obj
 0002:00002c8c       ??_C@_15KKOHIOBF@?$AA?2?$AA?3?$AA?$AA@ 0000000000022f4c     DevUtility:Path.obj
 0002:00002c98       year_lengths               0000000000022f58     LibTime:Time.obj
 0002:00002ca0       mon_lengths                0000000000022f60     LibTime:Time.obj
 0002:00002d00       ??_C@_0BA@NFHJAOCJ@?0M4?41?40?0M10?45?40?$AA@ 0000000000022fc0     LibTime:ZoneProc.obj
 0002:00002d10       ??_C@_02CLFPBFFP@TZ?$AA@   0000000000022fd0     LibTime:ZoneProc.obj
 0002:00002d18       wildabbr                   0000000000022fd8     LibTime:ZoneProc.obj
 0002:00002d24       gmt                        0000000000022fe4     LibTime:ZoneProc.obj
 0002:00002d28       ??_C@_0CI@BKHCEFMF@?$CILength?5?$DO?50x007F?$CJ?5?$CG?$CG?5?$CILength?5?$DM?$DN?5@ 0000000000022fe8     LibLocale:multibyte_Utf8.obj
 0002:00002d50       ??_C@_0P@CCFDOHOB@ProcessOneByte?$AA@ 0000000000023010     LibLocale:multibyte_Utf8.obj
 0002:00002d60       ??_C@_0DK@GDOMIPKJ@g?3?2uefi_edk2_practice?2StdLib?2Lib@ 0000000000023020     LibLocale:multibyte_Utf8.obj
 0002:00002da0       ??_C@_0CI@NHCOAOJN@?$CILength?5?$DO?50x07FF?$CJ?5?$CG?$CG?5?$CILength?5?$DM?$DN?5@ 0000000000023060     LibLocale:multibyte_Utf8.obj
 0002:00002dc8       ??_C@_0CK@ECFFLHAE@?$CILength?5?$DO?50xFFFF?$CJ?5?$CG?$CG?5?$CILength?5?$DM?$DN?5@ 0000000000023088     LibLocale:multibyte_Utf8.obj
 0002:00002f00       ??_C@_07PBILKAFL@Success?$AA@ 00000000000231c0     BasePrintLib:PrintLibInternal.obj
 0002:00002f08       ??_C@_0BG@CFJMNNJK@Warning?5Unknown?5Glyph?$AA@ 00000000000231c8     BasePrintLib:PrintLibInternal.obj
 0002:00002f20       ??_C@_0BH@GKKCJEPJ@Warning?5Delete?5Failure?$AA@ 00000000000231e0     BasePrintLib:PrintLibInternal.obj
 0002:00002f38       ??_C@_0BG@ECIJMOED@Warning?5Write?5Failure?$AA@ 00000000000231f8     BasePrintLib:PrintLibInternal.obj
 0002:00002f50       ??_C@_0BJ@ODIPDGHB@Warning?5Buffer?5Too?5Small?$AA@ 0000000000023210     BasePrintLib:PrintLibInternal.obj
 0002:00002f70       ??_C@_0BD@IFJNJCCO@Warning?5Stale?5Data?$AA@ 0000000000023230     BasePrintLib:PrintLibInternal.obj
 0002:00002f88       ??_C@_0L@PLPBEPPC@Load?5Error?$AA@ 0000000000023248     BasePrintLib:PrintLibInternal.obj
 0002:00002f98       ??_C@_0BC@HOFHKGJN@Invalid?5Parameter?$AA@ 0000000000023258     BasePrintLib:PrintLibInternal.obj
 0002:00002fb0       ??_C@_0M@BEECMOIL@Unsupported?$AA@ 0000000000023270     BasePrintLib:PrintLibInternal.obj
 0002:00002fc0       ??_C@_0BA@FLNMPMCF@Bad?5Buffer?5Size?$AA@ 0000000000023280     BasePrintLib:PrintLibInternal.obj
 0002:00002fd0       ??_C@_0BB@EGELJFOB@Buffer?5Too?5Small?$AA@ 0000000000023290     BasePrintLib:PrintLibInternal.obj
 0002:00002fe8       ??_C@_09NKFGCIPN@Not?5Ready?$AA@ 00000000000232a8     BasePrintLib:PrintLibInternal.obj
 0002:00002ff8       ??_C@_0N@HHEABDHO@Device?5Error?$AA@ 00000000000232b8     BasePrintLib:PrintLibInternal.obj
 0002:00003008       ??_C@_0BA@LNEDDFNB@Write?5Protected?$AA@ 00000000000232c8     BasePrintLib:PrintLibInternal.obj
 0002:00003018       ??_C@_0BB@GOILNEAA@Out?5of?5Resources?$AA@ 00000000000232d8     BasePrintLib:PrintLibInternal.obj
 0002:00003030       ??_C@_0P@EIOJGIF@Volume?5Corrupt?$AA@ 00000000000232f0     BasePrintLib:PrintLibInternal.obj
 0002:00003040       ??_C@_0M@HDLEPOFA@Volume?5Full?$AA@ 0000000000023300     BasePrintLib:PrintLibInternal.obj
 0002:00003050       ??_C@_08KEGAJDNN@No?5Media?$AA@ 0000000000023310     BasePrintLib:PrintLibInternal.obj
 0002:00003060       ??_C@_0O@JNCJKCCD@Media?5changed?$AA@ 0000000000023320     BasePrintLib:PrintLibInternal.obj
 0002:00003070       ??_C@_09CFCBFJND@Not?5Found?$AA@ 0000000000023330     BasePrintLib:PrintLibInternal.obj
 0002:00003080       ??_C@_0O@NFHOBIDO@Access?5Denied?$AA@ 0000000000023340     BasePrintLib:PrintLibInternal.obj
 0002:00003090       ??_C@_0M@ENKCBFEP@No?5Response?$AA@ 0000000000023350     BasePrintLib:PrintLibInternal.obj
 0002:000030a0       ??_C@_0L@IFPBNFC@No?5mapping?$AA@ 0000000000023360     BasePrintLib:PrintLibInternal.obj
 0002:000030b0       ??_C@_08PAFJCNGP@Time?5out?$AA@ 0000000000023370     BasePrintLib:PrintLibInternal.obj
 0002:000030c0       ??_C@_0M@DCJFAFHJ@Not?5started?$AA@ 0000000000023380     BasePrintLib:PrintLibInternal.obj
 0002:000030d0       ??_C@_0BA@IGIBFFPH@Already?5started?$AA@ 0000000000023390     BasePrintLib:PrintLibInternal.obj
 0002:000030e0       ??_C@_07LCKDCBKK@Aborted?$AA@ 00000000000233a0     BasePrintLib:PrintLibInternal.obj
 0002:000030e8       ??_C@_0L@LKIFCMNO@ICMP?5Error?$AA@ 00000000000233a8     BasePrintLib:PrintLibInternal.obj
 0002:000030f8       ??_C@_0L@DJKNJKHM@TFTP?5Error?$AA@ 00000000000233b8     BasePrintLib:PrintLibInternal.obj
 0002:00003108       ??_C@_0P@NCJHBCLM@Protocol?5Error?$AA@ 00000000000233c8     BasePrintLib:PrintLibInternal.obj
 0002:00003118       ??_C@_0BF@EHOBGFMI@Incompatible?5Version?$AA@ 00000000000233d8     BasePrintLib:PrintLibInternal.obj
 0002:00003130       ??_C@_0BD@KHMPCIOG@Security?5Violation?$AA@ 00000000000233f0     BasePrintLib:PrintLibInternal.obj
 0002:00003148       ??_C@_09BOMAGJEG@CRC?5Error?$AA@ 0000000000023408     BasePrintLib:PrintLibInternal.obj
 0002:00003158       ??_C@_0N@JEJDHPO@End?5of?5Media?$AA@ 0000000000023418     BasePrintLib:PrintLibInternal.obj
 0002:00003168       ??_C@_0O@NMJOLAMF@Reserved?5?$CI29?$CJ?$AA@ 0000000000023428     BasePrintLib:PrintLibInternal.obj
 0002:00003178       ??_C@_0O@GLPDOMCP@Reserved?5?$CI30?$CJ?$AA@ 0000000000023438     BasePrintLib:PrintLibInternal.obj
 0002:00003188       ??_C@_0M@FKGOBENP@End?5of?5File?$AA@ 0000000000023448     BasePrintLib:PrintLibInternal.obj
 0002:00003198       ??_C@_0BB@KFJAMCOC@Invalid?5Language?$AA@ 0000000000023458     BasePrintLib:PrintLibInternal.obj
 0002:000031b0       ??_C@_0BB@MFGDFIJM@Compromised?5Data?$AA@ 0000000000023470     BasePrintLib:PrintLibInternal.obj
 0002:000031c8       ??_C@_0O@MLOLIMFM@?$DMnull?5string?$DO?$AA@ 0000000000023488     BasePrintLib:PrintLibInternal.obj
 0002:000031d8       ??_C@_0M@BJJDNPHK@?$DMnull?5guid?$DO?$AA@ 0000000000023498     BasePrintLib:PrintLibInternal.obj
 0002:000031e8       ??_C@_0DB@PMLHLBMO@?$CF08x?9?$CF04x?9?$CF04x?9?$CF02x?$CF02x?9?$CF02x?$CF02x@ 00000000000234a8     BasePrintLib:PrintLibInternal.obj
 0002:00003220       ??_C@_0M@LHGBCIKM@?$DMnull?5time?$DO?$AA@ 00000000000234e0     BasePrintLib:PrintLibInternal.obj
 0002:00003230       ??_C@_0BK@FCPKCIDD@?$CF02d?1?$CF02d?1?$CF04d?5?5?$CF02d?3?$CF02d?$AA@ 00000000000234f0     BasePrintLib:PrintLibInternal.obj
 0002:0000324c       ??_C@_04JIMNDDED@?$CF08X?$AA@ 000000000002350c     BasePrintLib:PrintLibInternal.obj
 0002:00003254       ??_C@_02PCIJFNDE@?$AN?6?$AA@ 0000000000023514     BasePrintLib:PrintLibInternal.obj
 0002:00003258       ??_C@_01LIIJDEN@?$AN?$AA@  0000000000023518     BasePrintLib:PrintLibInternal.obj
 0002:00003260       mStatusString              0000000000023520     BasePrintLib:PrintLibInternal.obj
 0002:000033a0       mHexStr                    0000000000023660     BasePrintLib:PrintLibInternal.obj
 0002:000033b0       ??_C@_03OEIAHPBN@INF?$AA@  0000000000023670     LibStdio:vfprintf.obj
 0002:000033b4       ??_C@_03OJHLLCGB@inf?$AA@  0000000000023674     LibStdio:vfprintf.obj
 0002:000033b8       ??_C@_03LKNCIKJB@NAN?$AA@  0000000000023678     LibStdio:vfprintf.obj
 0002:000033bc       ??_C@_03LHCJEHON@nan?$AA@  000000000002367c     LibStdio:vfprintf.obj
 0002:000033c0       ??_C@_06OJHGLDPL@?$CInull?$CJ?$AA@ 0000000000023680     LibStdio:vfprintf.obj
 0002:000033f8       ??_C@_0N@KJMLEBIL@Head?5?$CB?$DN?5NULL?$AA@ 00000000000236b8     LibStdLib:Malloc.obj
 0002:00003408       ??_C@_06GLDDLHNF@malloc?$AA@ 00000000000236c8     LibStdLib:Malloc.obj
 0002:00003410       ??_C@_0DC@NMCJNOCJ@g?3?2uefi_edk2_practice?2StdLib?2Lib@ 00000000000236d0     LibStdLib:Malloc.obj
 0002:00003444       ??_C@_04LIAPHEDB@free?$AA@ 0000000000023704     LibStdLib:Malloc.obj
 0002:00003450       ??_C@_07EOOHGPEI@realloc?$AA@ 0000000000023710     LibStdLib:Malloc.obj
 0002:00003458       ??_C@_0CL@CALHJIEG@Assertion?5failed?3?5?$CI?$CFs?$CJ?0?5file?5?$CFs?0@ 0000000000023718     LibC:assert.obj
 0002:00003488       ??_C@_0DI@IOHIAJDA@Assertion?5failed?3?5?$CI?$CFs?$CJ?0?5file?5?$CFs?0@ 0000000000023748     LibC:assert.obj
 0002:000034c0       ??_C@_0O@IDFELCHE@RowDelta?5?$DO?$DN?50?$AA@ 0000000000023780     LibIIO:IIOutilities.obj
 0002:000034d0       ??_C@_0BA@HPMMKBFI@IIO_CursorDelta?$AA@ 0000000000023790     LibIIO:IIOutilities.obj
 0002:000034e0       ??_C@_0EE@PCGPCLLK@g?3?2uefi_edk2_practice?2StdLib?2Lib@ 00000000000237a0     LibIIO:IIOutilities.obj
 0002:00003530       ??_C@_0BH@MAAHKCPC@String?5?$CB?$DN?5?$CI?$CIvoid?5?$CK?$CJ?50?$CJ?$AA@ 00000000000237f0     UefiHiiLib:HiiString.obj
 0002:00003547       ??_C@_00CNPNBAHC@?$AA@     0000000000023807     UefiHiiLib:HiiString.obj
 0002:00003548       ??_C@_03OCLLGKEH@udp?$AA@  0000000000023808     BsdSocketLib:getnameinfo.obj
 0002:0000354c       ??_C@_03FPEIBLKH@tcp?$AA@  000000000002380c     BsdSocketLib:getnameinfo.obj
 0002:00003550       ??_C@_02GMHACPFF@?$CFu?$AA@ 0000000000023810     BsdSocketLib:getnameinfo.obj
 0002:00003558       ??_C@_07BOCLNEK@link?$CD?$CFu?$AA@ 0000000000023818     BsdSocketLib:getnameinfo.obj
 0002:00003560       ??_C@_01JLIPDDHJ@?3?$AA@   0000000000023820     BsdSocketLib:getnameinfo.obj
 0002:00003564       ??_C@_06ELKDNDAA@?$CFs?$CF02x?$AA@ 0000000000023824     BsdSocketLib:getnameinfo.obj
 0002:000035a0       ??_C@_05DPEMMMGC@files?$AA@ 0000000000023860     BsdSocketLib:getaddrinfo.obj
 0002:000035a8       ??_C@_03CMKEIMKI@dns?$AA@  0000000000023868     BsdSocketLib:getaddrinfo.obj
 0002:000035b0       ??_C@_0M@MBIPAJOD@getaddrinfo?$AA@ 0000000000023870     BsdSocketLib:getaddrinfo.obj
 0002:000035bc       ??_C@_05JPJINGDM@hosts?$AA@ 000000000002387c     BsdSocketLib:getaddrinfo.obj
 0002:000035c8       ??_C@_0BG@KMKAEGG@?1Efi?1StdLib?1etc?1hosts?$AA@ 0000000000023888     BsdSocketLib:getaddrinfo.obj
 0002:000035e0       ??_C@_02MAFKDGNO@?$CD?6?$AA@ 00000000000238a0     BsdSocketLib:getaddrinfo.obj
 0002:000035e4       ??_C@_02OJDBNLEE@?5?7?$AA@ 00000000000238a4     BsdSocketLib:getaddrinfo.obj
 0002:000035e8       ??_C@_05NNFHCGPF@?$CFs?4?$CFs?$AA@ 00000000000238a8     BsdSocketLib:getaddrinfo.obj
 0002:00003858       ??_C@_09JLOOHMDH@hosttable?$AA@ 0000000000023b18     BsdSocketLib:gethostnamadr.obj
 0002:00003864       ??_C@_06CGEDKBAH@htable?$AA@ 0000000000023b24     BsdSocketLib:gethostnamadr.obj
 0002:0000386c       ??_C@_04NPNJNMMP@bind?$AA@ 0000000000023b2c     BsdSocketLib:gethostnamadr.obj
 0002:00003874       ??_C@_06LKIIGAOE@domain?$AA@ 0000000000023b34     BsdSocketLib:gethostnamadr.obj
 0002:0000387c       ??_C@_02HEKBAMME@yp?$AA@   0000000000023b3c     BsdSocketLib:gethostnamadr.obj
 0002:00003880       ??_C@_0M@OENMNAL@yellowpages?$AA@ 0000000000023b40     BsdSocketLib:gethostnamadr.obj
 0002:0000388c       ??_C@_03EGFGHKEJ@nis?$AA@  0000000000023b4c     BsdSocketLib:gethostnamadr.obj
 0002:00003890       ??_C@_0BK@LEKNANDD@?1Efi?1StdLib?1etc?1host?4conf?$AA@ 0000000000023b50     BsdSocketLib:gethostnamadr.obj
 0002:000038ac       ??_C@_06DDPFIHHA@?6?5?7?0?3?$DL?$AA@ 0000000000023b6c     BsdSocketLib:gethostnamadr.obj
 0002:000038b8       ??_C@_0BJ@EOKAMHNJ@?1Efi?1StdLib?1etc?1services?$AA@ 0000000000023b78     BsdSocketLib:getservent.obj
 0002:000038d4       ??_C@_02CDPFKBAE@?0?1?$AA@ 0000000000023b94     BsdSocketLib:getservent.obj
 0002:000038d8       ??_C@_0BK@MLBMNABB@?$DL?$DL?5res_query?$CI?$CFs?0?5?$CFd?0?5?$CFd?$CJ?6?$AA@ 0000000000023b98     BsdSocketLib:res_query.obj
 0002:000038f8       ??_C@_0BO@JELEDMGM@?$DL?$DL?5res_query?3?5mkquery?5failed?6?$AA@ 0000000000023bb8     BsdSocketLib:res_query.obj
 0002:00003918       ??_C@_0BK@LFKJJMDE@?$DL?$DL?5res_query?3?5send?5error?6?$AA@ 0000000000023bd8     BsdSocketLib:res_query.obj
 0002:00003938       ??_C@_0BL@FEHNIFI@?$DL?$DL?5rcode?5?$DN?5?$CFd?0?5ancount?$DN?$CFd?6?$AA@ 0000000000023bf8     BsdSocketLib:res_query.obj
 0002:00003958       ??_C@_0M@JPEPCOFF@HOSTALIASES?$AA@ 0000000000023c18     BsdSocketLib:res_query.obj
 0002:00003968       ??_C@_0M@OKJFMMDK@LOCALDOMAIN?$AA@ 0000000000023c28     BsdSocketLib:res_init.obj
 0002:00003978       ??_C@_0BM@MOODCCJF@?1Efi?1StdLib?1etc?1resolv?4conf?$AA@ 0000000000023c38     BsdSocketLib:res_init.obj
 0002:00003994       ??_C@_03ILLHFMNI@?5?7?6?$AA@ 0000000000023c54     BsdSocketLib:res_init.obj
 0002:00003998       ??_C@_06GFPLNGOC@search?$AA@ 0000000000023c58     BsdSocketLib:res_init.obj
 0002:000039a0       ??_C@_0L@IGDCFOEA@nameserver?$AA@ 0000000000023c60     BsdSocketLib:res_init.obj
 0002:000039b0       ??_C@_08DFFPGALN@sortlist?$AA@ 0000000000023c70     BsdSocketLib:res_init.obj
 0002:000039c0       ??_C@_07FOPBDDAL@options?$AA@ 0000000000023c80     BsdSocketLib:res_init.obj
 0002:000039c8       ??_C@_04PFOEMICB@conf?$AA@ 0000000000023c88     BsdSocketLib:res_init.obj
 0002:000039d0       ??_C@_0CC@NOIFGLPA@?$DL?$DL?5res_setoptions?$CI?$CC?$CFs?$CC?0?5?$CC?$CFs?$CC?$CJ?4?4?4@ 0000000000023c90     BsdSocketLib:res_init.obj
 0002:000039f4       ??_C@_06KGFOIFFC@ndots?3?$AA@ 0000000000023cb4     BsdSocketLib:res_init.obj
 0002:00003a00       ??_C@_0N@CHFKDCBI@?$DL?$DL?7ndots?$DN?$CFd?6?$AA@ 0000000000023cc0     BsdSocketLib:res_init.obj
 0002:00003a10       ??_C@_05GFCDIDHO@debug?$AA@ 0000000000023cd0     BsdSocketLib:res_init.obj
 0002:00003a18       ??_C@_0CB@CPMIDNFF@?$DL?$DL?5res_setoptions?$CI?$CC?$CFs?$CC?0?5?$CC?$CFs?$CC?$CJ?4?4?6@ 0000000000023cd8     BsdSocketLib:res_init.obj
 0002:00003a40       ??_C@_09BAOJBMNB@?$DL?$DL?7debug?6?$AA@ 0000000000023d00     BsdSocketLib:res_init.obj
 0002:00003a4c       ??_C@_05JBNIJPCK@inet6?$AA@ 0000000000023d0c     BsdSocketLib:res_init.obj
 0002:00003a58       ??_C@_0N@CFOLBNCO@no_tld_query?$AA@ 0000000000023d18     BsdSocketLib:res_init.obj
 0002:00003a70       ??_C@_0BM@KPHOALJL@res_send?3?5?$CFs?5?$CI?$FL?$CFs?$FN?4?$CFu?$CJ?3?5?$CFs?6?$AA@ 0000000000023d30     BsdSocketLib:res_send.obj
 0002:00003a90       ??_C@_0BC@JFLCKNFG@res_send?3?5?$CFs?3?5?$CFs?6?$AA@ 0000000000023d50     BsdSocketLib:res_send.obj
 0002:00003aa8       ??_C@_0P@DJGAACBE@?$DL?$DL?5res_send?$CI?$CJ?6?$AA@ 0000000000023d68     BsdSocketLib:res_send.obj
 0002:00003ab8       ??_C@_0CI@EFFJKMPN@?$DL?$DL?5Querying?5server?5?$CI?$CD?5?$CFd?$CJ?5addres@ 0000000000023d78     BsdSocketLib:res_send.obj
 0002:00003ae0       ??_C@_0L@MDDEHJBC@socket?$CIvc?$CJ?$AA@ 0000000000023da0     BsdSocketLib:res_send.obj
 0002:00003af0       ??_C@_0L@JBCDMCDP@connect?1vc?$AA@ 0000000000023db0     BsdSocketLib:res_send.obj
 0002:00003b00       ??_C@_0N@EFFFKIOH@write?5failed?$AA@ 0000000000023dc0     BsdSocketLib:res_send.obj
 0002:00003b10       ??_C@_0M@CKJFJOPO@read?5failed?$AA@ 0000000000023dd0     BsdSocketLib:res_send.obj
 0002:00003b20       ??_C@_0BH@FDCFHDAN@?$DL?$DL?5response?5truncated?6?$AA@ 0000000000023de0     BsdSocketLib:res_send.obj
 0002:00003b38       ??_C@_0BD@NAEJELAM@?$DL?$DL?5undersized?3?5?$CFd?6?$AA@ 0000000000023df8     BsdSocketLib:res_send.obj
 0002:00003b50       ??_C@_08FADONFNH@read?$CIvc?$CJ?$AA@ 0000000000023e10     BsdSocketLib:res_send.obj
 0002:00003b60       ??_C@_0BN@DOENLAPH@?$DL?$DL?5old?5answer?5?$CIunexpected?$CJ?3?6?$AA@ 0000000000023e20     BsdSocketLib:res_send.obj
 0002:00003b80       ??_C@_0L@DOCNEONK@socket?$CIdg?$CJ?$AA@ 0000000000023e40     BsdSocketLib:res_send.obj
 0002:00003b90       ??_C@_0M@LNIIHKMM@connect?$CIdg?$CJ?$AA@ 0000000000023e50     BsdSocketLib:res_send.obj
 0002:00003b9c       ??_C@_04MIIPNNEF@send?$AA@ 0000000000023e5c     BsdSocketLib:res_send.obj
 0002:00003ba4       ??_C@_06MEPBGKEC@sendto?$AA@ 0000000000023e64     BsdSocketLib:res_send.obj
 0002:00003bb0       ??_C@_0BA@FDJDJHJN@s?5out?9of?9bounds?$AA@ 0000000000023e70     BsdSocketLib:res_send.obj
 0002:00003bc0       ??_C@_06LGNCCACI@select?$AA@ 0000000000023e80     BsdSocketLib:res_send.obj
 0002:00003bc8       ??_C@_0M@JLKAGGKD@?$DL?$DL?5timeout?6?$AA@ 0000000000023e88     BsdSocketLib:res_send.obj
 0002:00003bd8       ??_C@_08HMBBGFHE@recvfrom?$AA@ 0000000000023e98     BsdSocketLib:res_send.obj
 0002:00003be8       ??_C@_0BA@MKBCKFMM@?$DL?$DL?5old?5answer?3?6?$AA@ 0000000000023ea8     BsdSocketLib:res_send.obj
 0002:00003bf8       ??_C@_0BE@PGBMJPIO@?$DL?$DL?5not?5our?5server?3?6?$AA@ 0000000000023eb8     BsdSocketLib:res_send.obj
 0002:00003c10       ??_C@_0BG@CDKAPFLD@?$DL?$DL?5wrong?5query?5name?3?6?$AA@ 0000000000023ed0     BsdSocketLib:res_send.obj
 0002:00003c28       ??_C@_0BI@IAAECIJL@server?5rejected?5query?3?6?$AA@ 0000000000023ee8     BsdSocketLib:res_send.obj
 0002:00003c40       ??_C@_0BF@HFMIDGCN@?$DL?$DL?5truncated?5answer?6?$AA@ 0000000000023f00     BsdSocketLib:res_send.obj
 0002:00003c58       ??_C@_0BA@EJHJGAJK@?$DL?$DL?5got?5answer?3?6?$AA@ 0000000000023f18     BsdSocketLib:res_send.obj
 0002:00003c68       ??_C@_0CA@NAPJONBI@?$DL?$DL?5res_mkquery?$CI?$CFd?0?5?$CFs?0?5?$CFd?0?5?$CFd?$CJ?6?$AA@ 0000000000023f28     BsdSocketLib:res_mkquery.obj
 0002:00003c90       SocketOperations           0000000000023f50     BsdSocketLib:socket.obj
 0002:00003d34       ??_C@_03MEPGMKBP@?5?7?$AN?$AA@ 0000000000023ff4     BsdSocketLib:gethostbyht.obj
 0002:00003d38       ??_C@_0BJ@FMHNGNCO@?$CFu?4?$CFu?4?$CFu?4?$CFu?4in?9addr?4arpa?$AA@ 0000000000023ff8     BsdSocketLib:gethostbydns.obj
 0002:00003d54       ??_C@_06KAJPEHLL@?$CFx?4?$CFx?4?$AA@ 0000000000024014     BsdSocketLib:gethostbydns.obj
 0002:00003d60       ??_C@_07FKPHNMKJ@ip6?4int?$AA@ 0000000000024020     BsdSocketLib:gethostbydns.obj
 0002:00003d88       ??_C@_08DIAEFPGH@HOSTNAME?$AA@ 0000000000024048     BsdSocketLib:gethostname.obj
 0002:00003d94       ??_C@_03EEBNCBOD@?5?$CFs?$AA@ 0000000000024054     BsdSocketLib:res_debug.obj
 0002:00003d98       ??_C@_0BD@LPLIBIC@?$DL?$DL?5ns_parserr?3?5?$CFs?6?$AA@ 0000000000024058     BsdSocketLib:res_debug.obj
 0002:00003db0       ??_C@_0BA@PACLMBGB@?$DL?$DL?5?$CFs?5SECTION?3?6?$AA@ 0000000000024070     BsdSocketLib:res_debug.obj
 0002:00003dc0       ??_C@_01LFCBOECM@?4?$AA@   0000000000024080     BsdSocketLib:res_debug.obj
 0002:00003dc8       ??_C@_0BO@OIKKGPJO@?$DL?$DL?7?$CFs?0?5type?5?$DN?5?$CFs?0?5class?5?$DN?5?$CFs?6?$AA@ 0000000000024088     BsdSocketLib:res_debug.obj
 0002:00003de8       ??_C@_0BE@IDAOCDID@?$DL?$DL?5ns_sprintrr?3?5?$CFs?6?$AA@ 00000000000240a8     BsdSocketLib:res_debug.obj
 0002:00003e00       ??_C@_0BF@DKDLNLGA@?$DL?$DL?5ns_initparse?3?5?$CFs?6?$AA@ 00000000000240c0     BsdSocketLib:res_debug.obj
 0002:00003e18       ??_C@_0DA@DLKEMDIC@?$DL?$DL?5?9?$DO?$DOHEADER?$DM?$DM?9?5opcode?3?5?$CFs?0?5stat@ 00000000000240d8     BsdSocketLib:res_debug.obj
 0002:00003e48       ??_C@_08KKAJPIMB@?$DL?5flags?3?$AA@ 0000000000024108     BsdSocketLib:res_debug.obj
 0002:00003e54       ??_C@_03DGLDJGMO@?5qr?$AA@ 0000000000024114     BsdSocketLib:res_debug.obj
 0002:00003e58       ??_C@_03ELHKHECM@?5aa?$AA@ 0000000000024118     BsdSocketLib:res_debug.obj
 0002:00003e5c       ??_C@_03GDKBHHDF@?5tc?$AA@ 000000000002411c     BsdSocketLib:res_debug.obj
 0002:00003e60       ??_C@_03CIGNJNEA@?5rd?$AA@ 0000000000024120     BsdSocketLib:res_debug.obj
 0002:00003e64       ??_C@_03FFBKGJAF@?5ra?$AA@ 0000000000024124     BsdSocketLib:res_debug.obj
 0002:00003e68       ??_C@_03JGAAHEM@?5?$DP?$DP?$AA@ 0000000000024128     BsdSocketLib:res_debug.obj
 0002:00003e6c       ??_C@_03DGANIAGJ@?5ad?$AA@ 000000000002412c     BsdSocketLib:res_debug.obj
 0002:00003e70       ??_C@_03DFIJFEAH@?5cd?$AA@ 0000000000024130     BsdSocketLib:res_debug.obj
 0002:00003e78       ??_C@_08CIGDJLON@?$DL?5?$CFs?3?5?$CFd?$AA@ 0000000000024138     BsdSocketLib:res_debug.obj
 0002:00003e88       ??_C@_08OAMCLEFF@?0?5?$CFs?3?5?$CFd?$AA@ 0000000000024148     BsdSocketLib:res_debug.obj
 0002:00003e94       ??_C@_02BBAPPCCJ@IN?$AA@   0000000000024154     BsdSocketLib:res_debug.obj
 0002:00003e98       ??_C@_05GGIKMOCE@CHAOS?$AA@ 0000000000024158     BsdSocketLib:res_debug.obj
 0002:00003ea0       ??_C@_02OPKBPEAC@HS?$AA@   0000000000024160     BsdSocketLib:res_debug.obj
 0002:00003ea4       ??_C@_06DMJOGCBA@HESIOD?$AA@ 0000000000024164     BsdSocketLib:res_debug.obj
 0002:00003eac       ??_C@_03OMGOFJGM@ANY?$AA@  000000000002416c     BsdSocketLib:res_debug.obj
 0002:00003eb0       ??_C@_04OKGDLNCL@NONE?$AA@ 0000000000024170     BsdSocketLib:res_debug.obj
 0002:00003eb8       ??_C@_05NBJHHBHJ@QUERY?$AA@ 0000000000024178     BsdSocketLib:res_debug.obj
 0002:00003ec0       ??_C@_06GCAIMHKN@ANSWER?$AA@ 0000000000024180     BsdSocketLib:res_debug.obj
 0002:00003ec8       ??_C@_09KJENGKNI@AUTHORITY?$AA@ 0000000000024188     BsdSocketLib:res_debug.obj
 0002:00003ed8       ??_C@_0L@NCHCDFED@ADDITIONAL?$AA@ 0000000000024198     BsdSocketLib:res_debug.obj
 0002:00003ee4       ??_C@_04HPADIMGJ@ZONE?$AA@ 00000000000241a4     BsdSocketLib:res_debug.obj
 0002:00003ef0       ??_C@_0N@BIJIBOGD@PREREQUISITE?$AA@ 00000000000241b0     BsdSocketLib:res_debug.obj
 0002:00003f00       ??_C@_06HHJABCJL@UPDATE?$AA@ 00000000000241c0     BsdSocketLib:res_debug.obj
 0002:00003f08       ??_C@_01FHEEJDEE@A?$AA@    00000000000241c8     BsdSocketLib:res_debug.obj
 0002:00003f10       ??_C@_07LHEPONKL@address?$AA@ 00000000000241d0     BsdSocketLib:res_debug.obj
 0002:00003f18       ??_C@_02OLCMIILA@NS?$AA@   00000000000241d8     BsdSocketLib:res_debug.obj
 0002:00003f20       ??_C@_0M@EGCOMAM@name?5server?$AA@ 00000000000241e0     BsdSocketLib:res_debug.obj
 0002:00003f2c       ??_C@_02OMOJLCHP@MD?$AA@   00000000000241ec     BsdSocketLib:res_debug.obj
 0002:00003f30       ??_C@_0BO@CFPEHICJ@mail?5destination?5?$CIdeprecated?$CJ?$AA@ 00000000000241f0     BsdSocketLib:res_debug.obj
 0002:00003f50       ??_C@_02NONPNAPN@MF?$AA@   0000000000024210     BsdSocketLib:res_debug.obj
 0002:00003f58       ??_C@_0BM@GCNNFJJD@mail?5forwarder?5?$CIdeprecated?$CJ?$AA@ 0000000000024218     BsdSocketLib:res_debug.obj
 0002:00003f74       ??_C@_05PGNGFKDN@CNAME?$AA@ 0000000000024234     BsdSocketLib:res_debug.obj
 0002:00003f80       ??_C@_0P@CEDGKKPG@canonical?5name?$AA@ 0000000000024240     BsdSocketLib:res_debug.obj
 0002:00003f90       ??_C@_03JFKHDEBG@SOA?$AA@  0000000000024250     BsdSocketLib:res_debug.obj
 0002:00003f98       ??_C@_0BD@DMNHBGJD@start?5of?5authority?$AA@ 0000000000024258     BsdSocketLib:res_debug.obj
 0002:00003fac       ??_C@_02LKLDBFPJ@MB?$AA@   000000000002426c     BsdSocketLib:res_debug.obj
 0002:00003fb0       ??_C@_07LKIJFGBI@mailbox?$AA@ 0000000000024270     BsdSocketLib:res_debug.obj
 0002:00003fb8       ??_C@_02MHMEOBLM@MG?$AA@   0000000000024278     BsdSocketLib:res_debug.obj
 0002:00003fc0       ??_C@_0BC@CGPKNPAJ@mail?5group?5member?$AA@ 0000000000024280     BsdSocketLib:res_debug.obj
 0002:00003fd4       ??_C@_02PAHBAHKI@MR?$AA@   0000000000024294     BsdSocketLib:res_debug.obj
 0002:00003fd8       ??_C@_0M@BDINODOC@mail?5rename?$AA@ 0000000000024298     BsdSocketLib:res_debug.obj
 0002:00003fe4       ??_C@_04HIBGFPH@NULL?$AA@  00000000000242a4     BsdSocketLib:res_debug.obj
 0002:00003fec       ??_C@_04MLLLIHIP@null?$AA@ 00000000000242ac     BsdSocketLib:res_debug.obj
 0002:00003ff4       ??_C@_03GFDIHLEO@WKS?$AA@  00000000000242b4     BsdSocketLib:res_debug.obj
 0002:00003ff8       ??_C@_0CA@DEHEFJDK@well?9known?5service?5?$CIdeprecated?$CJ?$AA@ 00000000000242b8     BsdSocketLib:res_debug.obj
 0002:00004018       ??_C@_03PGIOJGPL@PTR?$AA@  00000000000242d8     BsdSocketLib:res_debug.obj
 0002:00004020       ??_C@_0BE@NJGCDBFC@domain?5name?5pointer?$AA@ 00000000000242e0     BsdSocketLib:res_debug.obj
 0002:00004034       ??_C@_05IAOIGBND@HINFO?$AA@ 00000000000242f4     BsdSocketLib:res_debug.obj
 0002:00004040       ??_C@_0BB@JOJNLJHB@host?5information?$AA@ 0000000000024300     BsdSocketLib:res_debug.obj
 0002:00004054       ??_C@_05NACFPAGA@MINFO?$AA@ 0000000000024314     BsdSocketLib:res_debug.obj
 0002:00004060       ??_C@_0BE@DDHECNDI@mailbox?5information?$AA@ 0000000000024320     BsdSocketLib:res_debug.obj
 0002:00004074       ??_C@_02KJOOPCC@MX?$AA@    0000000000024334     BsdSocketLib:res_debug.obj
 0002:00004078       ??_C@_0P@CPKKBILF@mail?5exchanger?$AA@ 0000000000024338     BsdSocketLib:res_debug.obj
 0002:00004088       ??_C@_03CGKMFPEO@TXT?$AA@  0000000000024348     BsdSocketLib:res_debug.obj
 0002:0000408c       ??_C@_04CIMGMMMG@text?$AA@ 000000000002434c     BsdSocketLib:res_debug.obj
 0002:00004094       ??_C@_02NFDNIBGH@RP?$AA@   0000000000024354     BsdSocketLib:res_debug.obj
 0002:00004098       ??_C@_0BD@PLBMFBJL@responsible?5person?$AA@ 0000000000024358     BsdSocketLib:res_debug.obj
 0002:000040ac       ??_C@_05DBOOICKL@AFSDB?$AA@ 000000000002436c     BsdSocketLib:res_debug.obj
 0002:000040b8       ??_C@_0BC@MOAODBBM@DCE?5or?5AFS?5server?$AA@ 0000000000024378     BsdSocketLib:res_debug.obj
 0002:000040cc       ??_C@_03FFNMPEOG@X25?$AA@  000000000002438c     BsdSocketLib:res_debug.obj
 0002:000040d0       ??_C@_0M@OPOCOBFN@X25?5address?$AA@ 0000000000024390     BsdSocketLib:res_debug.obj
 0002:000040dc       ??_C@_04KMOPNFAB@ISDN?$AA@ 000000000002439c     BsdSocketLib:res_debug.obj
 0002:000040e8       ??_C@_0N@MIPHLICC@ISDN?5address?$AA@ 00000000000243a8     BsdSocketLib:res_debug.obj
 0002:000040f8       ??_C@_02LBFBEEGD@RT?$AA@   00000000000243b8     BsdSocketLib:res_debug.obj
 0002:000040fc       ??_C@_06GGLMBGMH@router?$AA@ 00000000000243bc     BsdSocketLib:res_debug.obj
 0002:00004104       ??_C@_04MMEFPECF@NSAP?$AA@ 00000000000243c4     BsdSocketLib:res_debug.obj
 0002:00004110       ??_C@_0N@JPDKLPGJ@nsap?5address?$AA@ 00000000000243d0     BsdSocketLib:res_debug.obj
 0002:00004120       ??_C@_08KIILFPNJ@NSAP_PTR?$AA@ 00000000000243e0     BsdSocketLib:res_debug.obj
 0002:0000412c       ??_C@_03MHHAOPCC@SIG?$AA@  00000000000243ec     BsdSocketLib:res_debug.obj
 0002:00004130       ??_C@_09CMIIOJHF@signature?$AA@ 00000000000243f0     BsdSocketLib:res_debug.obj
 0002:0000413c       ??_C@_03IPIGFGOJ@KEY?$AA@  00000000000243fc     BsdSocketLib:res_debug.obj
 0002:00004140       ??_C@_03ICHNJLJF@key?$AA@  0000000000024400     BsdSocketLib:res_debug.obj
 0002:00004144       ??_C@_02BOGANPAB@PX?$AA@   0000000000024404     BsdSocketLib:res_debug.obj
 0002:00004148       ??_C@_0BE@LEJLOACO@mapping?5information?$AA@ 0000000000024408     BsdSocketLib:res_debug.obj
 0002:0000415c       ??_C@_04PCFDEHHD@GPOS?$AA@ 000000000002441c     BsdSocketLib:res_debug.obj
 0002:00004168       ??_C@_0CC@MKHEBCNH@geographical?5position?5?$CIwithdrawn@ 0000000000024428     BsdSocketLib:res_debug.obj
 0002:0000418c       ??_C@_04OHNMNPPA@AAAA?$AA@ 000000000002444c     BsdSocketLib:res_debug.obj
 0002:00004198       ??_C@_0N@CKPBFNGD@IPv6?5address?$AA@ 0000000000024458     BsdSocketLib:res_debug.obj
 0002:000041a8       ??_C@_03KPOLBBFN@LOC?$AA@  0000000000024468     BsdSocketLib:res_debug.obj
 0002:000041b0       ??_C@_08CBBFJFMD@location?$AA@ 0000000000024470     BsdSocketLib:res_debug.obj
 0002:000041bc       ??_C@_03BJAIOILF@NXT?$AA@  000000000002447c     BsdSocketLib:res_debug.obj
 0002:000041c0       ??_C@_0CA@GKGLOBJN@next?5valid?5name?5?$CIunimplemented?$CJ?$AA@ 0000000000024480     BsdSocketLib:res_debug.obj
 0002:000041e0       ??_C@_03JJCPLEKC@EID?$AA@  00000000000244a0     BsdSocketLib:res_debug.obj
 0002:000041e8       ??_C@_0CE@KIPGECFC@endpoint?5identifier?5?$CIunimplement@ 00000000000244a8     BsdSocketLib:res_debug.obj
 0002:0000420c       ??_C@_06IPMDNIEH@NIMLOC?$AA@ 00000000000244cc     BsdSocketLib:res_debug.obj
 0002:00004218       ??_C@_0BP@NOFBICMP@NIMROD?5locator?5?$CIunimplemented?$CJ?$AA@ 00000000000244d8     BsdSocketLib:res_debug.obj
 0002:00004238       ??_C@_03IENKIAKD@SRV?$AA@  00000000000244f8     BsdSocketLib:res_debug.obj
 0002:00004240       ??_C@_0BB@IKMJMEJL@server?5selection?$AA@ 0000000000024500     BsdSocketLib:res_debug.obj
 0002:00004254       ??_C@_04IJABIBDJ@ATMA?$AA@ 0000000000024514     BsdSocketLib:res_debug.obj
 0002:00004260       ??_C@_0BM@JNHCANEH@ATM?5address?5?$CIunimplemented?$CJ?$AA@ 0000000000024520     BsdSocketLib:res_debug.obj
 0002:0000427c       ??_C@_04JOBNNLDD@IXFR?$AA@ 000000000002453c     BsdSocketLib:res_debug.obj
 0002:00004288       ??_C@_0BK@IGJHIEFH@incremental?5zone?5transfer?$AA@ 0000000000024548     BsdSocketLib:res_debug.obj
 0002:000042a4       ??_C@_04KOGNJAPC@AXFR?$AA@ 0000000000024564     BsdSocketLib:res_debug.obj
 0002:000042b0       ??_C@_0O@DPANGLAB@zone?5transfer?$AA@ 0000000000024570     BsdSocketLib:res_debug.obj
 0002:000042c0       ??_C@_05MFLLHIID@MAILB?$AA@ 0000000000024580     BsdSocketLib:res_debug.obj
 0002:000042c8       ??_C@_0CC@LJLBDBDO@mailbox?9related?5data?5?$CIdeprecated@ 0000000000024588     BsdSocketLib:res_debug.obj
 0002:000042ec       ??_C@_05OOJGCLEA@MAILA?$AA@ 00000000000245ac     BsdSocketLib:res_debug.obj
 0002:000042f8       ??_C@_0BI@MEBMBCEH@mail?5agent?5?$CIdeprecated?$CJ?$AA@ 00000000000245b8     BsdSocketLib:res_debug.obj
 0002:00004310       ??_C@_05DGMJPCKB@NAPTR?$AA@ 00000000000245d0     BsdSocketLib:res_debug.obj
 0002:00004318       ??_C@_0BF@OEDJAEEH@URN?5Naming?5Authority?$AA@ 00000000000245d8     BsdSocketLib:res_debug.obj
 0002:00004330       ??_C@_05IHGADBFD@?$CCany?$CC?$AA@ 00000000000245f0     BsdSocketLib:res_debug.obj
 0002:00004338       ??_C@_02DPKJAMEF@?$CFd?$AA@ 00000000000245f8     BsdSocketLib:res_debug.obj
 0002:00004340       ??_C@_09PHJLGIAA@?$CFld?4?$CF?42ld?$AA@ 0000000000024600     BsdSocketLib:res_debug.obj
 0002:0000434c       ??_C@_01OGPIMHDM@?$DP?$AA@ 000000000002460c     BsdSocketLib:res_debug.obj
 0002:00004350       ??_C@_0CA@DLGPDBJO@?$DL?5error?3?5unknown?5LOC?5RR?5version?$AA@ 0000000000024610     BsdSocketLib:res_debug.obj
 0002:00004370       ??_C@_0DP@DFDILMHK@?$CFd?5?$CF?42d?5?$CF?42d?4?$CF?43d?5?$CFc?5?$CFd?5?$CF?42d?5?$CF?42@ 0000000000024630     BsdSocketLib:res_debug.obj
 0002:000043b0       ??_C@_0BJ@NPJPFJML@?$CF04d?$CF02d?$CF02d?$CF02d?$CF02d?$CF02d?$AA@ 0000000000024670     BsdSocketLib:res_debug.obj
 0002:000043d0       __p_type_syms              0000000000024690     BsdSocketLib:res_debug.obj
 0002:000047b0       __p_update_section_syms    0000000000024a70     BsdSocketLib:res_debug.obj
 0002:00004830       __p_default_section_syms   0000000000024af0     BsdSocketLib:res_debug.obj
 0002:000048b0       __p_class_syms             0000000000024b70     BsdSocketLib:res_debug.obj
 0002:00004980       ??_C@_04PEOOHEKN@?$CFd?$CFc?$AA@ 0000000000024c40     BsdSocketLib:ns_ttl.obj
 0002:00004990       _res_opcodes               0000000000024c50     BsdSocketLib:res_data.obj
 0002:00004a10       _res_resultcodes           0000000000024cd0     BsdSocketLib:res_data.obj
 0002:00004a90       ??_C@_06CMKKDPAO@IQUERY?$AA@ 0000000000024d50     BsdSocketLib:res_data.obj
 0002:00004a98       ??_C@_07DDIDKKLI@CQUERYM?$AA@ 0000000000024d58     BsdSocketLib:res_data.obj
 0002:00004aa0       ??_C@_07LBJIDCOB@CQUERYU?$AA@ 0000000000024d60     BsdSocketLib:res_data.obj
 0002:00004aa8       ??_C@_06LMEIPPMP@NOTIFY?$AA@ 0000000000024d68     BsdSocketLib:res_data.obj
 0002:00004ab0       ??_C@_01DHDKHMHF@6?$AA@    0000000000024d70     BsdSocketLib:res_data.obj
 0002:00004ab4       ??_C@_01COCBENDE@7?$AA@    0000000000024d74     BsdSocketLib:res_data.obj
 0002:00004ab8       ??_C@_01KJLJFBPL@8?$AA@    0000000000024d78     BsdSocketLib:res_data.obj
 0002:00004abc       ??_C@_01LAKCGALK@9?$AA@    0000000000024d7c     BsdSocketLib:res_data.obj
 0002:00004ac0       ??_C@_02PKFBJPLJ@10?$AA@   0000000000024d80     BsdSocketLib:res_data.obj
 0002:00004ac4       ??_C@_02ODEKKOPI@11?$AA@   0000000000024d84     BsdSocketLib:res_data.obj
 0002:00004ac8       ??_C@_02MIGHPNDL@12?$AA@   0000000000024d88     BsdSocketLib:res_data.obj
 0002:00004acc       ??_C@_02NBHMMMHK@13?$AA@   0000000000024d8c     BsdSocketLib:res_data.obj
 0002:00004ad0       ??_C@_08MKCCFOCK@ZONEINIT?$AA@ 0000000000024d90     BsdSocketLib:res_data.obj
 0002:00004ae0       ??_C@_07PIEPBGKM@ZONEREF?$AA@ 0000000000024da0     BsdSocketLib:res_data.obj
 0002:00004ae8       ??_C@_07JLIAMAKP@NOERROR?$AA@ 0000000000024da8     BsdSocketLib:res_data.obj
 0002:00004af0       ??_C@_07GNDGLGGP@FORMERR?$AA@ 0000000000024db0     BsdSocketLib:res_data.obj
 0002:00004af8       ??_C@_08IKFFGNOI@SERVFAIL?$AA@ 0000000000024db8     BsdSocketLib:res_data.obj
 0002:00004b08       ??_C@_08FFFFEFAA@NXDOMAIN?$AA@ 0000000000024dc8     BsdSocketLib:res_data.obj
 0002:00004b14       ??_C@_06GBNPKLGH@NOTIMP?$AA@ 0000000000024dd4     BsdSocketLib:res_data.obj
 0002:00004b20       ??_C@_07IJODECFP@REFUSED?$AA@ 0000000000024de0     BsdSocketLib:res_data.obj
 0002:00004b28       ??_C@_08JNPEGKLI@YXDOMAIN?$AA@ 0000000000024de8     BsdSocketLib:res_data.obj
 0002:00004b38       ??_C@_07LCCFCNML@YXRRSET?$AA@ 0000000000024df8     BsdSocketLib:res_data.obj
 0002:00004b40       ??_C@_07MEFLBFPJ@NXRRSET?$AA@ 0000000000024e00     BsdSocketLib:res_data.obj
 0002:00004b48       ??_C@_07EJMDHCDA@NOTAUTH?$AA@ 0000000000024e08     BsdSocketLib:res_data.obj
 0002:00004b50       ??_C@_07CEGBLCK@ZONEERR?$AA@ 0000000000024e10     BsdSocketLib:res_data.obj
 0002:00004b58       ??_C@_02JODNFKLN@14?$AA@   0000000000024e18     BsdSocketLib:res_data.obj
 0002:00004b60       ??_C@_08IPHAHKJC@NOCHANGE?$AA@ 0000000000024e20     BsdSocketLib:res_data.obj
 0002:00004b6c       ??_C@_04MCDFJPOH@?$EA?7?7?7?$AA@ 0000000000024e2c     BsdSocketLib:ns_print.obj
 0002:00004b74       ??_C@_06NOJLBGIH@?5?$CFs?5?$CFs?$AA@ 0000000000024e34     BsdSocketLib:ns_print.obj
 0002:00004b7c       ??_C@_01CLKCMJKC@?5?$AA@   0000000000024e3c     BsdSocketLib:ns_print.obj
 0002:00004b80       ??_C@_03LCDIHAAP@?5?$CI?6?$AA@ 0000000000024e40     BsdSocketLib:ns_print.obj
 0002:00004b84       ??_C@_05MHDJKCKJ@?7?7?7?7?7?$AA@ 0000000000024e44     BsdSocketLib:ns_print.obj
 0002:00004b8c       ??_C@_03FKNCMABI@?$CFlu?$AA@ 0000000000024e4c     BsdSocketLib:ns_print.obj
 0002:00004b90       ??_C@_09BPLGGKIK@?$DL?5serial?6?$AA@ 0000000000024e50     BsdSocketLib:ns_print.obj
 0002:00004ba0       ??_C@_0L@KMMPJEFP@?$DL?5refresh?6?$AA@ 0000000000024e60     BsdSocketLib:ns_print.obj
 0002:00004bb0       ??_C@_08DIBBNKO@?$DL?5retry?6?$AA@ 0000000000024e70     BsdSocketLib:ns_print.obj
 0002:00004bc0       ??_C@_09LGOCJHMJ@?$DL?5expiry?6?$AA@ 0000000000024e80     BsdSocketLib:ns_print.obj
 0002:00004bcc       ??_C@_02HMLFPPOG@?5?$CJ?$AA@ 0000000000024e8c     BsdSocketLib:ns_print.obj
 0002:00004bd0       ??_C@_0L@MBDHGGHJ@?$DL?5minimum?6?$AA@ 0000000000024e90     BsdSocketLib:ns_print.obj
 0002:00004bdc       ??_C@_03IOOJPBPG@?$CFu?5?$AA@ 0000000000024e9c     BsdSocketLib:ns_print.obj
 0002:00004be0       ??_C@_06DFGKFENJ@?$CFu?5?$CFu?5?$AA@ 0000000000024ea0     BsdSocketLib:ns_print.obj
 0002:00004be8       ??_C@_09KBLKMPIJ@?$CFu?5?$CFu?5?$CFu?5?$AA@ 0000000000024ea8     BsdSocketLib:ns_print.obj
 0002:00004bf4       ??_C@_06MIJFHOOD@?5?$CFu?5?$CI?5?$AA@ 0000000000024eb4     BsdSocketLib:ns_print.obj
 0002:00004bfc       ??_C@_05EBKNNAAH@?6?7?7?7?7?$AA@ 0000000000024ebc     BsdSocketLib:ns_print.obj
 0002:00004c04       ??_C@_03JDANDILB@?$CFd?5?$AA@ 0000000000024ec4     BsdSocketLib:ns_print.obj
 0002:00004c08       ??_C@_01PKGAHCOL@?$CJ?$AA@ 0000000000024ec8     BsdSocketLib:ns_print.obj
 0002:00004c10       ??_C@_0N@CDPGHNCO@0x?$CF04x?5?$CFu?5?$CFu?$AA@ 0000000000024ed0     BsdSocketLib:ns_print.obj
 0002:00004c20       ??_C@_02GFKOMOKH@?5?$CI?$AA@ 0000000000024ee0     BsdSocketLib:ns_print.obj
 0002:00004c24       ??_C@_03GPBFEAEB@?6?7?7?$AA@ 0000000000024ee4     BsdSocketLib:ns_print.obj
 0002:00004c28       ??_C@_0M@ICPDBKOB@?5?$CFs?5?$CFd?5?$CFlu?5?$AA@ 0000000000024ee8     BsdSocketLib:ns_print.obj
 0002:00004c34       ??_C@_03IKGEINEE@?$CFs?5?$AA@ 0000000000024ef4     BsdSocketLib:ns_print.obj
 0002:00004c38       ??_C@_0BA@BMDNLAMI@unknown?5RR?5type?$AA@ 0000000000024ef8     BsdSocketLib:ns_print.obj
 0002:00004c48       ??_C@_0BA@CJGBAHPH@RR?5format?5error?$AA@ 0000000000024f08     BsdSocketLib:ns_print.obj
 0002:00004c58       ??_C@_09NAHCKKEG@?2?$CD?$CI?7?7?$DL?5?$CFs?$AA@ 0000000000024f18     BsdSocketLib:ns_print.obj
 0002:00004c64       ??_C@_02NMOLBIHC@?6?7?$AA@ 0000000000024f24     BsdSocketLib:ns_print.obj
 0002:00004c68       ??_C@_05CNDJFPDP@?$CF02x?5?$AA@ 0000000000024f28     BsdSocketLib:ns_print.obj
 0002:00004c70       ??_C@_02LNAEAIDO@?$DL?5?$AA@ 0000000000024f30     BsdSocketLib:ns_print.obj
 0002:00004c74       ??_C@_01BJJEKLCA@?$CC?$AA@ 0000000000024f34     BsdSocketLib:ns_print.obj
 0002:00004c78       ??_C@_03JMMBEAFB@?6?$CC?2?$AA@ 0000000000024f38     BsdSocketLib:ns_print.obj
 0002:00004c7c       ??_C@_01KICIPPFI@?2?$AA@   0000000000024f3c     BsdSocketLib:ns_print.obj
 0002:00004c80       ??_C@_0P@LKBJECJ@len?5?$DM?$DN?5?$CKbuflen?$AA@ 0000000000024f40     BsdSocketLib:ns_print.obj
 0002:00004c90       ??_C@_06HEBHPMEI@addlen?$AA@ 0000000000024f50     BsdSocketLib:ns_print.obj
 0002:00004c98       ??_C@_0DF@LKNBCILH@g?3?2uefi_edk2_practice?2StdLib?2Bsd@ 0000000000024f58     BsdSocketLib:ns_print.obj
 0002:00004cd0       ??_C@_02KNHHEEKP@?5?5?$AA@ 0000000000024f90     BsdSocketLib:ns_print.obj
 0002:00004cd4       ??_C@_01GPOEFGEJ@?7?$AA@   0000000000024f94     BsdSocketLib:ns_print.obj
 0002:00004d28       ??_C@_0M@CDHNGIPM@?$CFu?4?$CFu?4?$CFu?4?$CFu?$AA@ 0000000000024fe8     LibNetUtil:inet_ntop.obj
 0002:00004d34       ??_C@_02NJNOFBBI@?$CFx?$AA@ 0000000000024ff4     LibNetUtil:inet_ntop.obj
 0002:00004d38       ??_C@_0BC@GMEENAFH@?$FLinet_ntoa?5error?$FN?$AA@ 0000000000024ff8     LibNetUtil:inet_ntoa.obj
 0002:00004d50       ??_C@_1CI@LEOIGPHJ@?$AA?6?$AAC?$AAa?$AAu?$AAg?$AAh?$AAt?$AA?5?$AAs?$AAi?$AAg?$AAn?$AAa?$AAl?$AA?5?$AA?$CF?$AAd?$AA?4?$AA?6?$AA?$AA@ 0000000000025010     LibSignal:Signal.obj
 0002:00004d80       _DefaultMonetaryLocale     0000000000025040     LibLocale:_def_monetary.obj
 0002:00004dc8       _DefaultNumericLocale      0000000000025088     LibLocale:_def_numeric.obj
 0002:00004de0       ??_C@_08KEBCLIFP@Infinity?$AA@ 00000000000250a0     LibGdtoa:dtoa.obj
 0002:00004dec       ??_C@_03ICJPMMHB@NaN?$AA@  00000000000250ac     LibGdtoa:dtoa.obj
 0002:00004df0       ??_C@_01GBGANLPD@0?$AA@    00000000000250b0     LibGdtoa:dtoa.obj
 0002:00004e00       __bigtens_D2A              00000000000250c0     LibGdtoa:misc.obj
 0002:00004e30       __tens_D2A                 00000000000250f0     LibGdtoa:misc.obj
 0002:00004ef8       ??_C@_0N@DFGEMFMI@Self?5?$CB?$DN?5NULL?$AA@ 00000000000251b8     LibContainer:Fifo.obj
 0002:00004f08       ??_C@_0DL@KIFDCNBL@g?3?2uefi_edk2_practice?2StdLib?2Lib@ 00000000000251c8     LibContainer:Fifo.obj
 0002:00004f48       ??_C@_0N@KPNBOCLA@FIFO_IsEmpty?$AA@ 0000000000025208     LibContainer:Fifo.obj
 0002:00004f58       ??_C@_0M@LHAKPCNM@FIFO_IsFull?$AA@ 0000000000025218     LibContainer:Fifo.obj
 0002:00004f68       ??_C@_0N@LBHOADMO@FIFO_Enqueue?$AA@ 0000000000025228     LibContainer:Fifo.obj
 0002:00004f78       ??_C@_0BB@EKHBJDKA@pElement?5?$CB?$DN?5NULL?$AA@ 0000000000025238     LibContainer:Fifo.obj
 0002:00004f90       ??_C@_0N@HPNDFHKK@FIFO_Dequeue?$AA@ 0000000000025250     LibContainer:Fifo.obj
 0002:00004fa0       ??_C@_0N@CJLEDFNJ@FIFO_GetRDex?$AA@ 0000000000025260     LibContainer:Fifo.obj
 0002:00004fb0       ??_C@_0N@OBFELKKJ@FIFO_GetWDex?$AA@ 0000000000025270     LibContainer:Fifo.obj
 0002:00004fc0       ??_C@_0M@BLMNFLCB@FIFO_Delete?$AA@ 0000000000025280     LibContainer:Fifo.obj
 0002:00004fd0       ??_C@_0L@GCDDJGHC@FIFO_Flush?$AA@ 0000000000025290     LibContainer:Fifo.obj
 0002:00004fe0       ??_C@_0O@CEMJFGGE@FIFO_Truncate?$AA@ 00000000000252a0     LibContainer:Fifo.obj
 0002:00004ff0       __real@0000000000000000    00000000000252b0     LibGdtoa:dtoa.obj
 0002:00004ff8       __real@3fc68a288b60c8b3    00000000000252b8     LibGdtoa:dtoa.obj
 0002:00005000       __real@3fd287a7636f4361    00000000000252c0     LibGdtoa:dtoa.obj
 0002:00005008       __real@3fd34413509f79fb    00000000000252c8     LibGdtoa:dtoa.obj
 0002:00005010       __real@3fe0000000000000    00000000000252d0     LibGdtoa:dtoa.obj
 0002:00005018       __real@3ff0000000000000    00000000000252d8     LibGdtoa:dtoa.obj
 0002:00005020       __real@3ff8000000000000    00000000000252e0     LibGdtoa:dtoa.obj
 0002:00005028       __real@4014000000000000    00000000000252e8     LibGdtoa:dtoa.obj
 0002:00005030       __real@401c000000000000    00000000000252f0     LibGdtoa:dtoa.obj
 0002:00005038       __real@4024000000000000    00000000000252f8     LibGdtoa:dtoa.obj
 0002:00005040       __real@75154fdd7f73bf3c    0000000000025300     LibGdtoa:dtoa.obj
 0002:00005048       __real@c014000000000000    0000000000025308     LibGdtoa:dtoa.obj
 0002:00005050       __xmm@80000000000000008000000000000000 0000000000025310     LibGdtoa:dtoa.obj
 0002:00005180       gST                        0000000000025440     UefiBootServicesTableLib:UefiBootServicesTableLib.obj
 0002:00005188       gImageHandle               0000000000025448     UefiBootServicesTableLib:UefiBootServicesTableLib.obj
 0002:00005190       gBS                        0000000000025450     UefiBootServicesTableLib:UefiBootServicesTableLib.obj
 0002:00005198       EFIerrno                   0000000000025458     LibC:errno.obj
 0002:000051a0       errno                      0000000000025460     LibC:errno.obj
 0002:000051a8       __wchar_bitmap             0000000000025468     LibWchar:ConsDecons.obj
 0002:000051b0       gRT                        0000000000025470     UefiRuntimeServicesTableLib:UefiRuntimeServicesTableLib.obj
 0002:000051b8       gHiiString                 0000000000025478     UefiHiiServicesLib:UefiHiiServicesLib.obj
 0002:000051c0       gHiiFont                   0000000000025480     UefiHiiServicesLib:UefiHiiServicesLib.obj
 0002:000051c8       gHiiConfigRouting          0000000000025488     UefiHiiServicesLib:UefiHiiServicesLib.obj
 0002:000051d0       gHiiImage                  0000000000025490     UefiHiiServicesLib:UefiHiiServicesLib.obj
 0002:000051d8       gHiiDatabase               0000000000025498     UefiHiiServicesLib:UefiHiiServicesLib.obj
 0002:000051e0       daDefaultDevice            00000000000254a0     DevUtility:DevGenisis.obj
 0002:000051e8       lclptr                     00000000000254a8     LibTime:ZoneProc.obj
 0002:000051f0       gmtptr                     00000000000254b0     LibTime:ZoneProc.obj
 0002:00020f68       __dtoa_result_D2A          0000000000041228     <common>
 0002:00020f70       h_errno                    0000000000041230     <common>
 0002:00020f80       _res                       0000000000041240     <common>
 0002:000211a8       _serv_stayopen             0000000000041468     <common>
 0002:000211c0       __sFext                    0000000000041480     <common>
 0002:000212b0       __sdidinit                 0000000000041570     <common>
 0002:000212c0       mServiceName               0000000000041580     <common>
 0002:000213c0       mHostName                  0000000000041680     <common>
 0002:000214c0       mEslLayer                  0000000000041780     <common>
 0002:00021508       gEfiShellParametersProtocol 00000000000417c8     <common>
 0002:00021520       FileFunctionMap            00000000000417e0     <common>
 0002:00021570       mEfiShellEnvironment2      0000000000041830     <common>
 0002:00021578       mEfiShellInterface         0000000000041838     <common>
 0002:00021580       gEfiShellProtocol          0000000000041840     <common>
 0002:00021588       mUnicodeCollationProtocol  0000000000041848     <common>
 0002:00021590       mEfiShellEnvironment2Handle 0000000000041850     <common>
 0002:00021598       __wchar_bitmap_size        0000000000041858     <common>
 0002:000215a0       gMD                        0000000000041860     <common>

 entry point at        0001:0000010c

 Static symbols

 0001:00000d24       da_ConSeek                 0000000000000fc4 f   DevConsole:daConsole.obj
 0001:00000d94       da_ConWrite                0000000000001034 f   DevConsole:daConsole.obj
 0001:00000e3c       da_ConRawRead              00000000000010dc f   DevConsole:daConsole.obj
 0001:00000eec       da_ConRead                 000000000000118c f   DevConsole:daConsole.obj
 0001:00000fe4       da_ConStat                 0000000000001284 f   DevConsole:daConsole.obj
 0001:000010c0       da_ConIoctl                0000000000001360 f   DevConsole:daConsole.obj
 0001:00001144       da_ConFlush                00000000000013e4 f   DevConsole:daConsole.obj
 0001:000011f8       da_ConClose                0000000000001498 f   DevConsole:daConsole.obj
 0001:0000125c       da_ConPoll                 00000000000014fc f   DevConsole:daConsole.obj
 0001:0000224c       da_ShellClose              00000000000024ec f   DevShell:daShell.obj
 0001:00002274       da_ShellDelete             0000000000002514 f   DevShell:daShell.obj
 0001:000022a4       da_ShellSeek               0000000000002544 f   DevShell:daShell.obj
 0001:00002388       da_ShellMkdir              0000000000002628 f   DevShell:daShell.obj
 0001:000024c4       da_ShellRead               0000000000002764 f   DevShell:daShell.obj
 0001:0000255c       da_ShellWrite              00000000000027fc f   DevShell:daShell.obj
 0001:00002608       da_ShellStat               00000000000028a8 f   DevShell:daShell.obj
 0001:000026e0       da_ShellIoctl              0000000000002980 f   DevShell:daShell.obj
 0001:00002a78       da_ShellPoll               0000000000002d18 f   DevShell:daShell.obj
 0001:00002aac       da_ShellRename             0000000000002d4c f   DevShell:daShell.obj
 0001:00002c20       da_ShellRmdir              0000000000002ec0 f   DevShell:daShell.obj
 0001:0000a420       timesub                    000000000000a6c0 f   LibTime:Time.obj
 0001:0000a718       normalize_overflow         000000000000a9b8 f   LibTime:Time.obj
 0001:0000a770       time2sub                   000000000000aa10 f   LibTime:Time.obj
 0001:0000abec       time1                      000000000000ae8c f   LibTime:Time.obj
 0001:0000af08       localsub                   000000000000b1a8 f   LibTime:Time.obj
 0001:0000b10c       settzname                  000000000000b3ac f   LibTime:ZoneProc.obj
 0001:0000b1bc       getnum                     000000000000b45c f   LibTime:ZoneProc.obj
 0001:0000b1fc       getsecs                    000000000000b49c f   LibTime:ZoneProc.obj
 0001:0000b2a4       getrule                    000000000000b544 f   LibTime:ZoneProc.obj
 0001:0000b39c       transtime                  000000000000b63c f   LibTime:ZoneProc.obj
 0001:0000b59c       tzparse                    000000000000b83c f   LibTime:ZoneProc.obj
 0001:0000bb74       ProcessOneByte             000000000000be14 f   LibLocale:multibyte_Utf8.obj
 0001:0000c0c4       __wctoint                  000000000000c364 f   LibLocale:wcstol.obj
 0001:0000d2a8       __sbprintf                 000000000000d548 f   LibStdio:vfprintf.obj
 0001:0000d37c       __ultoa                    000000000000d61c f   LibStdio:vfprintf.obj
 0001:0000d4bc       __wcsconv                  000000000000d75c f   LibStdio:vfprintf.obj
 0001:0000f910       __find_arguments           000000000000fbb0 f   LibStdio:vfprintf.obj
 0001:00010310       __grow_type_table          00000000000105b0 f   LibStdio:vfprintf.obj
 0001:000103cc       cvt                        000000000001066c f   LibStdio:vfprintf.obj
 0001:00010500       exponent                   00000000000107a0 f   LibStdio:vfprintf.obj
 0001:00011374       IIO_Read                   0000000000011614 f   LibIIO:IIO.obj
 0001:0001148c       IIO_Write                  000000000001172c f   LibIIO:IIO.obj
 0001:000116b0       IIO_Echo                   0000000000011950 f   LibIIO:IIO.obj
 0001:00011864       IIO_Delete                 0000000000011b04 f   LibIIO:IIO.obj
 0001:000122b0       BuildBitmap                0000000000012550 f   LibWchar:Searching.obj
 0001:00012524       getnameinfo_inet           00000000000127c4 f   BsdSocketLib:getnameinfo.obj
 0001:000128ec       ip6_parsenumeric           0000000000012b8c f   BsdSocketLib:getnameinfo.obj
 0001:00012a04       getnameinfo_link           0000000000012ca4 f   BsdSocketLib:getnameinfo.obj
 0001:00013074       explore_null               0000000000013314 f   BsdSocketLib:getaddrinfo.obj
 0001:00013158       explore_numeric            00000000000133f8 f   BsdSocketLib:getaddrinfo.obj
 0001:00013294       explore_numeric_scope      0000000000013534 f   BsdSocketLib:getaddrinfo.obj
 0001:0001341c       get_ai                     00000000000136bc f   BsdSocketLib:getaddrinfo.obj
 0001:000134bc       get_port                   000000000001375c f   BsdSocketLib:getaddrinfo.obj
 0001:000135d4       getanswer                  0000000000013874 f   BsdSocketLib:getaddrinfo.obj
 0001:00013aac       _dns_getaddrinfo           0000000000013d4c f   BsdSocketLib:getaddrinfo.obj
 0001:00013d40       _gethtent                  0000000000013fe0 f   BsdSocketLib:getaddrinfo.obj
 0001:00013ef8       _files_getaddrinfo         0000000000014198 f   BsdSocketLib:getaddrinfo.obj
 0001:00013fcc       res_queryN                 000000000001426c f   BsdSocketLib:getaddrinfo.obj
 0001:0001410c       res_searchN                00000000000143ac f   BsdSocketLib:getaddrinfo.obj
 0001:00014314       res_querydomainN           00000000000145b4 f   BsdSocketLib:getaddrinfo.obj
 0001:000143f8       init_services              0000000000014698 f   BsdSocketLib:gethostnamadr.obj
 0001:0001528c       res_setoptions             000000000001552c f   BsdSocketLib:res_init.obj
 0001:000153f4       Aerror                     0000000000015694 f   BsdSocketLib:res_send.obj
 0001:0001547c       Perror                     000000000001571c f   BsdSocketLib:res_send.obj
 0001:00016b28       inet_pton4                 0000000000016dc8 f   BsdSocketLib:inet_pton.obj
 0001:00016bf8       inet_pton6                 0000000000016e98 f   BsdSocketLib:inet_pton.obj
 0001:00016fc4       gethostanswer              0000000000017264 f   BsdSocketLib:gethostbydns.obj
 0001:00017afc       do_section                 0000000000017d9c f   BsdSocketLib:res_debug.obj
 0001:000182b4       precsize_ntoa              0000000000018554 f   BsdSocketLib:res_debug.obj
 0001:00018f20       skiprr                     00000000000191c0 f   BsdSocketLib:ns_parse.obj
 0001:000194b0       fmt1                       0000000000019750 f   BsdSocketLib:ns_ttl.obj
 0001:0001a868       charstr                    000000000001ab08 f   BsdSocketLib:ns_print.obj
 0001:0001a970       addname                    000000000001ac10 f   BsdSocketLib:ns_print.obj
 0001:0001aa78       addlen                     000000000001ad18 f   BsdSocketLib:ns_print.obj
 0001:0001aacc       addstr                     000000000001ad6c f   BsdSocketLib:ns_print.obj
 0001:0001ab2c       addtab                     000000000001adcc f   BsdSocketLib:ns_print.obj
 0001:0001ae60       inet_ntop4                 000000000001b100 f   LibNetUtil:inet_ntop.obj
 0001:0001aedc       inet_ntop6                 000000000001b17c f   LibNetUtil:inet_ntop.obj
 0001:0001b3e4       selscan                    000000000001b684 f   LibUefi:select.obj
 0001:0001d3b0       lflush                     000000000001d650 f   LibStdio:refill.obj
 0001:0001d7e4       Digit2Val                  000000000001da84 f   LibStdLib:NumericInt.obj
 0001:0001d930       FIFO_NumInQueue            000000000001dbd0 f   LibContainer:Fifo.obj
 0001:0001d95c       FIFO_FreeSpace             000000000001dbfc f   LibContainer:Fifo.obj
 0001:0001d98c       FIFO_IsEmpty               000000000001dc2c f   LibContainer:Fifo.obj
 0001:0001d9cc       FIFO_IsFull                000000000001dc6c f   LibContainer:Fifo.obj
 0001:0001da28       FIFO_Enqueue               000000000001dcc8 f   LibContainer:Fifo.obj
 0001:0001db38       FIFO_Dequeue               000000000001ddd8 f   LibContainer:Fifo.obj
 0001:0001dc54       FIFO_Read                  000000000001def4 f   LibContainer:Fifo.obj
 0001:0001dc5c       FIFO_Copy                  000000000001defc f   LibContainer:Fifo.obj
 0001:0001dc64       FIFO_GetRDex               000000000001df04 f   LibContainer:Fifo.obj
 0001:0001dc9c       FIFO_GetWDex               000000000001df3c f   LibContainer:Fifo.obj
 0001:0001dcd4       FIFO_Delete                000000000001df74 f   LibContainer:Fifo.obj
 0001:0001dd30       FIFO_Flush                 000000000001dfd0 f   LibContainer:Fifo.obj
 0001:0001dde8       FIFO_Truncate              000000000001e088 f   LibContainer:Fifo.obj
 0001:0001fce8       BuildBitmap                000000000001ff88 f   LibString:Searching.obj
 0002:00000018       BitMask                    00000000000202d8     LibString:Searching.obj
 0002:00000260       ?zeroes@?1??__vfprintf_unlocked@@9@9 0000000000020520     LibStdio:vfprintf.obj
 0002:00000270       ?blanks@?1??__vfprintf_unlocked@@9@9 0000000000020530     LibStdio:vfprintf.obj
 0002:00000478       uglue                      0000000000020738     LibStdio:findfp.obj
 0002:000004a8       MemPoolHead                0000000000020768     LibStdLib:Malloc.obj
 0002:000004b8       Spaces                     0000000000020778     LibIIO:IIOwrite.obj
 0002:000004e0       service_names              00000000000207a0     BsdSocketLib:gethostnamadr.obj
 0002:00000590       s                          0000000000020850     BsdSocketLib:res_send.obj
 0002:00000598       digits                     0000000000020858     BsdSocketLib:ns_name.obj
 0002:00000638       pmem_next                  00000000000208f8     LibGdtoa:misc.obj
 0002:00002418       stdioFlags                 00000000000226d8     DevConsole:daConsole.obj
 0002:00002430       stdioNames                 00000000000226f0     DevConsole:daConsole.obj
 0002:00002e00       utf8_code_length           00000000000230c0     LibLocale:multibyte_Utf8.obj
 0002:000033c8       ?xdigs_lower@?1??__vfprintf_unlocked@@9@9 0000000000023688     LibStdio:vfprintf.obj
 0002:000033e0       ?xdigs_upper@?1??__vfprintf_unlocked@@9@9 00000000000236a0     LibStdio:vfprintf.obj
 0002:00003528       BitMask                    00000000000237e8     LibWchar:Searching.obj
 0002:00003570       afdl                       0000000000023830     BsdSocketLib:getnameinfo.obj
 0002:000035f0       explore                    00000000000238b0     BsdSocketLib:getaddrinfo.obj
 0002:00003730       in6_addrany                00000000000239f0     BsdSocketLib:getaddrinfo.obj
 0002:00003740       in6_loopback               0000000000023a00     BsdSocketLib:getaddrinfo.obj
 0002:00003750       dtab                       0000000000023a10     BsdSocketLib:getaddrinfo.obj
 0002:00003798       in_addrany                 0000000000023a58     BsdSocketLib:getaddrinfo.obj
 0002:000037a0       default_dns_files          0000000000023a60     BsdSocketLib:getaddrinfo.obj
 0002:000037d0       in_loopback                0000000000023a90     BsdSocketLib:getaddrinfo.obj
 0002:000037e0       afdl                       0000000000023aa0     BsdSocketLib:getaddrinfo.obj
 0002:00003a68       sort_mask                  0000000000023d28     BsdSocketLib:res_init.obj
 0002:00003cf8       ?xdigits_u@?1??inet_pton6@@9@9 0000000000023fb8     BsdSocketLib:inet_pton.obj
 0002:00003d10       ?xdigits_l@?1??inet_pton6@@9@9 0000000000023fd0     BsdSocketLib:inet_pton.obj
 0002:00003d28       ?digits@?1??inet_pton4@@9@9 0000000000023fe8     BsdSocketLib:inet_pton.obj
 0002:00003d68       ?tunnelled@?1??_gethostbydnsaddr@@9@9 0000000000024028     BsdSocketLib:gethostbydns.obj
 0002:00003d78       ?mapped@?1??_gethostbydnsaddr@@9@9 0000000000024038     BsdSocketLib:gethostbydns.obj
 0002:00004958       poweroften                 0000000000024c18     BsdSocketLib:res_debug.obj
 0002:00004ce0       Base64                     0000000000024fa0     BsdSocketLib:base64.obj
 0002:00004d78       ?flag@?1??selscan@@9@9     0000000000025038     LibUefi:select.obj
 0002:00004ee8       ?p05@?1??__pow5mult_D2A@@9@9 00000000000251a8     LibGdtoa:misc.obj
 0002:00005080       ?errorbuf@?1??strerror@@9@9 0000000000025340     LibString:Misc.obj
 0002:000051f8       lcl_is_set                 00000000000254b8     LibTime:ZoneProc.obj
 0002:00005200       LocalConvState             00000000000254c0     LibLocale:multibyte_Utf8.obj
 0002:00005220       usual                      00000000000254e0     LibStdio:findfp.obj
 0002:00005d50       private_mem                0000000000026010     LibGdtoa:misc.obj
 0002:00006650       ConInstanceList            0000000000026910     DevConsole:daConsole.obj
 0002:00006658       IIO                        0000000000026918     DevConsole:daConsole.obj
 0002:00006660       ConNode                    0000000000026920     DevConsole:daConsole.obj
 0002:00006678       gmt_is_set                 0000000000026938     LibTime:Time.obj
 0002:00006680       lcl_TZname                 0000000000026940     LibTime:ZoneProc.obj
 0002:00006780       ?empty@?1??moreglue@@9@9   0000000000026a40     LibStdio:findfp.obj
 0002:00006828       ?BufCnt@?1??IIO_GetInChar@@9@9 0000000000026ae8     LibIIO:IIOutilities.obj
 0002:00006830       usualext                   0000000000026af0     LibStdio:findfp.obj
 0002:00006d80       ?hostbuf@?1??_gethtent@@9@9 0000000000027040     BsdSocketLib:getaddrinfo.obj
 0002:00008d80       ?buf@?1??res_queryN@@9@9   0000000000029040     BsdSocketLib:getaddrinfo.obj
 0002:00018d80       ?hostbuf@?1??getanswer@@9@9 0000000000039040     BsdSocketLib:getaddrinfo.obj
 0002:0001ad80       service_order              000000000003b040     BsdSocketLib:gethostnamadr.obj
 0002:0001ad90       serv_aliases               000000000003b050     BsdSocketLib:getservent.obj
 0002:0001aea8       ?unname@?1??__sym_ntos@@9@9 000000000003b168     BsdSocketLib:res_debug.obj
 0002:0001aec0       line                       000000000003b180     BsdSocketLib:getservent.obj
 0002:0001b2c8       host_addr                  000000000003b588     BsdSocketLib:gethostbyht.obj
 0002:0001b2d8       ?ret@?1??inet_ntoa@@9@9    000000000003b598     LibNetUtil:inet_ntoa.obj
 0002:0001b2f0       serv                       000000000003b5b0     BsdSocketLib:getservent.obj
 0002:0001b310       ?abuf@?1??__hostalias@@9@9 000000000003b5d0     BsdSocketLib:res_query.obj
 0002:0001b718       h_addr_ptrs                000000000003b9d8     BsdSocketLib:gethostbyht.obj
 0002:0001b728       p5s                        000000000003b9e8     LibGdtoa:misc.obj
 0002:0001b730       host                       000000000003b9f0     BsdSocketLib:gethostbyht.obj
 0002:0001b750       hostbuf                    000000000003ba10     BsdSocketLib:gethostbyht.obj
 0002:0001bb58       host_addr                  000000000003be18     BsdSocketLib:gethostbydns.obj
 0002:0001bb70       host_aliases               000000000003be30     BsdSocketLib:gethostbyht.obj
 0002:0001bc88       host                       000000000003bf48     BsdSocketLib:gethostbydns.obj
 0002:0001bcb0       hostbuf                    000000000003bf70     BsdSocketLib:gethostbydns.obj
 0002:0001dcb0       host_aliases               000000000003df70     BsdSocketLib:gethostbydns.obj
 0002:0001ddd0       h_addr_ptrs                000000000003e090     BsdSocketLib:gethostbydns.obj
 0002:0001def0       ?retbuf@?1??precsize_ntoa@@9@9 000000000003e1b0     BsdSocketLib:res_debug.obj
 0002:0001df00       ?output@?1??__p_secstodate@@9@9 000000000003e1c0     BsdSocketLib:res_debug.obj
 0002:0001df10       ?t@?1??__ns_sprintrrf@@9@9 000000000003e1d0     BsdSocketLib:ns_print.obj
 0002:0001e210       ?base64_key@?1??__ns_sprintrrf@@9@9 000000000003e4d0     BsdSocketLib:ns_print.obj
 0002:00020cc0       ?ret@?1??localeconv@@9@9   0000000000040f80     LibLocale:localeconv.obj
 0002:00020d20       freelist                   0000000000040fe0     LibGdtoa:misc.obj
 0002:00020f28       ?hostf@?1??_files_getaddrinfo@@9@9 00000000000411e8     BsdSocketLib:getaddrinfo.obj
 0002:00020f30       service_done               00000000000411f0     BsdSocketLib:gethostnamadr.obj
 0002:00020f38       servf                      00000000000411f8     BsdSocketLib:getservent.obj
 0002:00020f40       Rhook                      0000000000041200     BsdSocketLib:res_send.obj
 0002:00020f48       connected                  0000000000041208     BsdSocketLib:res_send.obj
 0002:00020f50       Qhook                      0000000000041210     BsdSocketLib:res_send.obj
 0002:00020f58       vc                         0000000000041218     BsdSocketLib:res_send.obj
 0002:00020f5c       stayopen                   000000000004121c     BsdSocketLib:gethostbyht.obj
 0002:00020f60       hostf                      0000000000041220     BsdSocketLib:gethostbyht.obj
 0003:00000000       $pdata$_ModuleEntryPoint   0000000000041900     UefiApplicationEntryPoint:ApplicationEntryPoint.obj
 0003:0000000c       $pdata$ProcessLibraryConstructorList 000000000004190c     GetNameInfo:AutoGen.obj
 0003:00000018       $pdata$ProcessLibraryDestructorList 0000000000041918     GetNameInfo:AutoGen.obj
 0003:00000024       $pdata$ProcessModuleEntryPointList 0000000000041924     GetNameInfo:AutoGen.obj
 0003:00000030       $pdata$ShellCEntryLib      0000000000041930     UefiShellCEntryLib:UefiShellCEntryLib.obj
 0003:0000003c       $pdata$exitCleanup         000000000004193c     LibC:Main.obj
 0003:00000048       $pdata$ShellAppMain        0000000000041948     LibC:Main.obj
 0003:00000054       $pdata$__wchar_construct   0000000000041954     LibWchar:ConsDecons.obj
 0003:00000060       $pdata$__wchar_deconstruct 0000000000041960     LibWchar:ConsDecons.obj
 0003:0000006c       $pdata$da_ConSeek          000000000004196c     DevConsole:daConsole.obj
 0003:00000078       $pdata$da_ConWrite         0000000000041978     DevConsole:daConsole.obj
 0003:00000084       $pdata$da_ConRawRead       0000000000041984     DevConsole:daConsole.obj
 0003:00000090       $pdata$da_ConRead          0000000000041990     DevConsole:daConsole.obj
 0003:0000009c       $pdata$da_ConStat          000000000004199c     DevConsole:daConsole.obj
 0003:000000a8       $pdata$da_ConFlush         00000000000419a8     DevConsole:daConsole.obj
 0003:000000b4       $pdata$da_ConClose         00000000000419b4     DevConsole:daConsole.obj
 0003:000000c0       $pdata$da_ConPoll          00000000000419c0     DevConsole:daConsole.obj
 0003:000000cc       $pdata$__Cons_construct    00000000000419cc     DevConsole:daConsole.obj
 0003:000000d8       $pdata$__Cons_deconstruct  00000000000419d8     DevConsole:daConsole.obj
 0003:000000e4       $pdata$EfiGetCurrentTpl    00000000000419e4     UefiLib:UefiLib.obj
 0003:000000f0       $pdata$InternalPrint       00000000000419f0     UefiLib:UefiLibPrint.obj
 0003:000000fc       $pdata$Print               00000000000419fc     UefiLib:UefiLibPrint.obj
 0003:00000108       $pdata$ShellFindSE2        0000000000041a08     UefiShellLib:UefiShellLib.obj
 0003:00000114       $pdata$ShellLibConstructorWorker 0000000000041a14     UefiShellLib:UefiShellLib.obj
 0003:00000120       $pdata$ShellLibDestructor  0000000000041a20     UefiShellLib:UefiShellLib.obj
 0003:0000012c       $pdata$ShellOpenFileByDevicePath 0000000000041a2c     UefiShellLib:UefiShellLib.obj
 0003:00000138       $pdata$ShellOpenFileByName 0000000000041a38     UefiShellLib:UefiShellLib.obj
 0003:00000144       $pdata$ShellFindFirstFile  0000000000041a44     UefiShellLib:UefiShellLib.obj
 0003:00000150       $pdata$ShellIsFile         0000000000041a50     UefiShellLib:UefiShellLib.obj
 0003:0000015c       $pdata$UefiHiiServicesLibConstructor 0000000000041a5c     UefiHiiServicesLib:UefiHiiServicesLib.obj
 0003:00000168       $pdata$da_ShellClose       0000000000041a68     DevShell:daShell.obj
 0003:00000174       $pdata$da_ShellDelete      0000000000041a74     DevShell:daShell.obj
 0003:00000180       $pdata$da_ShellSeek        0000000000041a80     DevShell:daShell.obj
 0003:0000018c       $pdata$da_ShellMkdir       0000000000041a8c     DevShell:daShell.obj
 0003:00000198       $pdata$da_ShellRead        0000000000041a98     DevShell:daShell.obj
 0003:000001a4       $pdata$da_ShellWrite       0000000000041aa4     DevShell:daShell.obj
 0003:000001b0       $pdata$da_ShellStat        0000000000041ab0     DevShell:daShell.obj
 0003:000001bc       $pdata$da_ShellIoctl       0000000000041abc     DevShell:daShell.obj
 0003:000001c8       $pdata$da_ShellOpen        0000000000041ac8     DevShell:daShell.obj
 0003:000001d4       $pdata$da_ShellRename      0000000000041ad4     DevShell:daShell.obj
 0003:000001e0       $pdata$da_ShellRmdir       0000000000041ae0     DevShell:daShell.obj
 0003:000001ec       $pdata$__ctor_DevShell     0000000000041aec     DevShell:daShell.obj
 0003:000001f8       $pdata$__dtor_DevShell     0000000000041af8     DevShell:daShell.obj
 0003:00000204       $pdata$EslServiceFreeProtocol 0000000000041b04     EfiSocketLib:UseEfiSocketLib.obj
 0003:00000210       $pdata$EslServiceNetworkConnect 0000000000041b10     EfiSocketLib:UseEfiSocketLib.obj
 0003:0000021c       $pdata$EslServiceNetworkDisconnect 0000000000041b1c     EfiSocketLib:UseEfiSocketLib.obj
 0003:00000228       $pdata$EslServiceConnect   0000000000041b28     EfiSocketLib:Service.obj
 0003:00000234       $pdata$EslSocket           0000000000041b34     EfiSocketLib:Socket.obj
 0003:00000240       $pdata$EslSocketAccept     0000000000041b40     EfiSocketLib:Socket.obj
 0003:0000024c       $pdata$EslSocketAllocate   0000000000041b4c     EfiSocketLib:Socket.obj
 0003:00000258       $pdata$EslSocketBind       0000000000041b58     EfiSocketLib:Socket.obj
 0003:00000264       $pdata$EslSocketBindTest   0000000000041b64     EfiSocketLib:Socket.obj
 0003:00000270       $pdata$EslSocketClosePoll  0000000000041b70     EfiSocketLib:Socket.obj
 0003:0000027c       $pdata$EslSocketCloseStart 0000000000041b7c     EfiSocketLib:Socket.obj
 0003:00000288       $pdata$EslSocketConnect    0000000000041b88     EfiSocketLib:Socket.obj
 0003:00000294       $pdata$EslSocketCopyFragmentedBuffer 0000000000041b94     EfiSocketLib:Socket.obj
 0003:000002a0       $pdata$EslSocketGetLocalAddress 0000000000041ba0     EfiSocketLib:Socket.obj
 0003:000002ac       $pdata$EslSocketGetPeerAddress 0000000000041bac     EfiSocketLib:Socket.obj
 0003:000002b8       $pdata$EslSocketIoFree     0000000000041bb8     EfiSocketLib:Socket.obj
 0003:000002c4       $pdata$EslSocketIoInit     0000000000041bc4     EfiSocketLib:Socket.obj
 0003:000002d0       $pdata$EslSocketIsConfigured 0000000000041bd0     EfiSocketLib:Socket.obj
 0003:000002dc       $pdata$EslSocketListen     0000000000041bdc     EfiSocketLib:Socket.obj
 0003:000002e8       $pdata$EslSocketOptionGet  0000000000041be8     EfiSocketLib:Socket.obj
 0003:000002f4       $pdata$EslSocketOptionSet  0000000000041bf4     EfiSocketLib:Socket.obj
 0003:00000300       $pdata$EslSocketPacketAllocate 0000000000041c00     EfiSocketLib:Socket.obj
 0003:0000030c       $pdata$EslSocketPoll       0000000000041c0c     EfiSocketLib:Socket.obj
 0003:00000318       $pdata$EslSocketPortAllocate 0000000000041c18     EfiSocketLib:Socket.obj
 0003:00000324       $pdata$EslSocketPortClose  0000000000041c24     EfiSocketLib:Socket.obj
 0003:00000330       $pdata$EslSocketPortCloseComplete 0000000000041c30     EfiSocketLib:Socket.obj
 0003:0000033c       $pdata$EslSocketPortCloseRxDone 0000000000041c3c     EfiSocketLib:Socket.obj
 0003:00000348       $pdata$EslSocketPortCloseStart 0000000000041c48     EfiSocketLib:Socket.obj
 0003:00000354       $pdata$EslSocketPortCloseTxDone 0000000000041c54     EfiSocketLib:Socket.obj
 0003:00000360       $pdata$EslSocketReceive    0000000000041c60     EfiSocketLib:Socket.obj
 0003:0000036c       $pdata$EslSocketRxComplete 0000000000041c6c     EfiSocketLib:Socket.obj
 0003:00000378       $pdata$EslSocketRxStart    0000000000041c78     EfiSocketLib:Socket.obj
 0003:00000384       $pdata$EslSocketShutdown   0000000000041c84     EfiSocketLib:Socket.obj
 0003:00000390       $pdata$EslSocketTransmit   0000000000041c90     EfiSocketLib:Socket.obj
 0003:0000039c       $pdata$EslSocketTxComplete 0000000000041c9c     EfiSocketLib:Socket.obj
 0003:000003a8       $pdata$EslSocketTxStart    0000000000041ca8     EfiSocketLib:Socket.obj
 0003:000003b4       $pdata$EslTcp6Accept       0000000000041cb4     EfiSocketLib:Tcp6.obj
 0003:000003c0       $pdata$EslTcp6ConnectComplete 0000000000041cc0     EfiSocketLib:Tcp6.obj
 0003:000003cc       $pdata$EslTcp6ConnectStart 0000000000041ccc     EfiSocketLib:Tcp6.obj
 0003:000003d8       $pdata$EslTcp6Listen       0000000000041cd8     EfiSocketLib:Tcp6.obj
 0003:000003e4       $pdata$EslTcp6ListenComplete 0000000000041ce4     EfiSocketLib:Tcp6.obj
 0003:000003f0       $pdata$EslTcp6LocalAddressGet 0000000000041cf0     EfiSocketLib:Tcp6.obj
 0003:000003fc       $pdata$EslTcp6LocalAddressSet 0000000000041cfc     EfiSocketLib:Tcp6.obj
 0003:00000408       $pdata$EslTcp6PortAllocate 0000000000041d08     EfiSocketLib:Tcp6.obj
 0003:00000414       $pdata$EslTcp6PortClose    0000000000041d14     EfiSocketLib:Tcp6.obj
 0003:00000420       $pdata$EslTcp6Receive      0000000000041d20     EfiSocketLib:Tcp6.obj
 0003:0000042c       $pdata$EslTcp6RemoteAddressGet 0000000000041d2c     EfiSocketLib:Tcp6.obj
 0003:00000438       $pdata$EslTcp6RemoteAddressSet 0000000000041d38     EfiSocketLib:Tcp6.obj
 0003:00000444       $pdata$EslTcp6TxBuffer     0000000000041d44     EfiSocketLib:Tcp6.obj
 0003:00000444       $pdata$EslTcp4TxBuffer     0000000000041d44     EfiSocketLib:Tcp4.obj
 0003:00000450       $pdata$EslTcp4TxComplete   0000000000041d50     EfiSocketLib:Tcp4.obj
 0003:00000450       $pdata$EslTcp6TxComplete   0000000000041d50     EfiSocketLib:Tcp6.obj
 0003:0000045c       $pdata$EslTcp4TxOobComplete 0000000000041d5c     EfiSocketLib:Tcp4.obj
 0003:0000045c       $pdata$EslTcp6TxOobComplete 0000000000041d5c     EfiSocketLib:Tcp6.obj
 0003:00000468       $pdata$EslTcp6VerifyLocalIpAddress 0000000000041d68     EfiSocketLib:Tcp6.obj
 0003:00000474       $pdata$EslIp4Receive       0000000000041d74     EfiSocketLib:Ip4.obj
 0003:00000480       $pdata$EslIp4SocketIsConfigured 0000000000041d80     EfiSocketLib:Ip4.obj
 0003:0000048c       $pdata$EslIp4TxBuffer      0000000000041d8c     EfiSocketLib:Ip4.obj
 0003:00000498       $pdata$EslUdp6TxComplete   0000000000041d98     EfiSocketLib:Udp6.obj
 0003:00000498       $pdata$EslIp4TxComplete    0000000000041d98     EfiSocketLib:Ip4.obj
 0003:000004a4       $pdata$EslIp4VerifyLocalIpAddress 0000000000041da4     EfiSocketLib:Ip4.obj
 0003:000004b0       $pdata$EslTcp4Accept       0000000000041db0     EfiSocketLib:Tcp4.obj
 0003:000004bc       $pdata$EslTcp4ConnectComplete 0000000000041dbc     EfiSocketLib:Tcp4.obj
 0003:000004c8       $pdata$EslTcp4ConnectStart 0000000000041dc8     EfiSocketLib:Tcp4.obj
 0003:000004d4       $pdata$EslTcp4Listen       0000000000041dd4     EfiSocketLib:Tcp4.obj
 0003:000004e0       $pdata$EslTcp4ListenComplete 0000000000041de0     EfiSocketLib:Tcp4.obj
 0003:000004ec       $pdata$EslTcp4LocalAddressGet 0000000000041dec     EfiSocketLib:Tcp4.obj
 0003:000004f8       $pdata$EslTcp4LocalAddressSet 0000000000041df8     EfiSocketLib:Tcp4.obj
 0003:00000504       $pdata$EslTcp4PortAllocate 0000000000041e04     EfiSocketLib:Tcp4.obj
 0003:00000510       $pdata$EslTcp4PortClose    0000000000041e10     EfiSocketLib:Tcp4.obj
 0003:0000051c       $pdata$EslTcp4Receive      0000000000041e1c     EfiSocketLib:Tcp4.obj
 0003:00000528       $pdata$EslTcp4RemoteAddressGet 0000000000041e28     EfiSocketLib:Tcp4.obj
 0003:00000534       $pdata$EslTcp4RemoteAddressSet 0000000000041e34     EfiSocketLib:Tcp4.obj
 0003:00000540       $pdata$EslTcp4VerifyLocalIpAddress 0000000000041e40     EfiSocketLib:Tcp4.obj
 0003:0000054c       $pdata$EslUdp4LocalAddressGet 0000000000041e4c     EfiSocketLib:Udp4.obj
 0003:00000558       $pdata$EslUdp4LocalAddressSet 0000000000041e58     EfiSocketLib:Udp4.obj
 0003:00000564       $pdata$EslUdp4Receive      0000000000041e64     EfiSocketLib:Udp4.obj
 0003:00000570       $pdata$EslUdp4RemoteAddressGet 0000000000041e70     EfiSocketLib:Udp4.obj
 0003:0000057c       $pdata$EslUdp4RemoteAddressSet 0000000000041e7c     EfiSocketLib:Udp4.obj
 0003:00000588       $pdata$EslUdp4SocketIsConfigured 0000000000041e88     EfiSocketLib:Udp4.obj
 0003:00000594       $pdata$EslUdp4TxBuffer     0000000000041e94     EfiSocketLib:Udp4.obj
 0003:000005a0       $pdata$EslUdp4TxComplete   0000000000041ea0     EfiSocketLib:Udp4.obj
 0003:000005ac       $pdata$EslUdp4VerifyLocalIpAddress 0000000000041eac     EfiSocketLib:Udp4.obj
 0003:000005b8       $pdata$EslUdp6LocalAddressGet 0000000000041eb8     EfiSocketLib:Udp6.obj
 0003:000005c4       $pdata$EslUdp6LocalAddressSet 0000000000041ec4     EfiSocketLib:Udp6.obj
 0003:000005d0       $pdata$EslUdp6Receive      0000000000041ed0     EfiSocketLib:Udp6.obj
 0003:000005dc       $pdata$EslUdp6RemoteAddressGet 0000000000041edc     EfiSocketLib:Udp6.obj
 0003:000005e8       $pdata$EslUdp6RemoteAddressSet 0000000000041ee8     EfiSocketLib:Udp6.obj
 0003:000005f4       $pdata$EslUdp6SocketIsConfigured 0000000000041ef4     EfiSocketLib:Udp6.obj
 0003:00000600       $pdata$EslUdp6TxBuffer     0000000000041f00     EfiSocketLib:Udp6.obj
 0003:0000060c       $pdata$EslUdp6VerifyLocalIpAddress 0000000000041f0c     EfiSocketLib:Udp6.obj
 0003:00000618       $pdata$main                0000000000041f18     GetNameInfo:GetNameInfo.obj
 0003:00000624       $pdata$__DevRegister       0000000000041f24     DevUtility:DevGenisis.obj
 0003:00000630       $pdata$ClassifyPath        0000000000041f30     DevUtility:Path.obj
 0003:0000063c       $pdata$NormalizePath       0000000000041f3c     DevUtility:Path.obj
 0003:00000648       $pdata$ParsePath           0000000000041f48     DevUtility:Path.obj
 0003:00000654       $pdata$__DevSearch         0000000000041f54     DevUtility:DevSearch.obj
 0003:00000660       $pdata$isatty              0000000000041f60     LibUefi:SysCalls.obj
 0003:0000066c       $pdata$close               0000000000041f6c     LibUefi:SysCalls.obj
 0003:00000678       $pdata$lseek               0000000000041f78     LibUefi:SysCalls.obj
 0003:00000684       $pdata$open                0000000000041f84     LibUefi:SysCalls.obj
 0003:00000690       $pdata$fstat               0000000000041f90     LibUefi:SysCalls.obj
 0003:0000069c       $pdata$read                0000000000041f9c     LibUefi:SysCalls.obj
 0003:000006a8       $pdata$write               0000000000041fa8     LibUefi:SysCalls.obj
 0003:000006b4       $pdata$timesub             0000000000041fb4     LibTime:Time.obj
 0003:000006c0       $pdata$normalize_overflow  0000000000041fc0     LibTime:Time.obj
 0003:000006cc       $pdata$time2sub            0000000000041fcc     LibTime:Time.obj
 0003:000006d8       $pdata$time1               0000000000041fd8     LibTime:Time.obj
 0003:000006e4       $pdata$time                0000000000041fe4     LibTime:Time.obj
 0003:000006f0       $pdata$gmtsub              0000000000041ff0     LibTime:Time.obj
 0003:000006fc       $pdata$localsub            0000000000041ffc     LibTime:Time.obj
 0003:00000708       $pdata$Efi2Time            0000000000042008     LibTime:TimeEfi.obj
 0003:00000714       $pdata$Time2Efi            0000000000042014     LibTime:TimeEfi.obj
 0003:00000720       $pdata$getsecs             0000000000042020     LibTime:ZoneProc.obj
 0003:0000072c       $pdata$getrule             000000000004202c     LibTime:ZoneProc.obj
 0003:00000738       $pdata$transtime           0000000000042038     LibTime:ZoneProc.obj
 0003:00000744       $pdata$tzparse             0000000000042044     LibTime:ZoneProc.obj
 0003:00000750       $pdata$tzset               0000000000042050     LibTime:ZoneProc.obj
 0003:0000075c       $pdata$ProcessOneByte      000000000004205c     LibLocale:multibyte_Utf8.obj
 0003:00000768       $pdata$DecodeOneStateful   0000000000042068     LibLocale:multibyte_Utf8.obj
 0003:00000774       $pdata$EstimateWtoM        0000000000042074     LibLocale:multibyte_Utf8.obj
 0003:00000780       $pdata$EncodeUtf8          0000000000042080     LibLocale:multibyte_Utf8.obj
 0003:0000078c       $pdata$wcrtomb             000000000004208c     LibLocale:multibyte_Utf8.obj
 0003:00000798       $pdata$wcsrtombs           0000000000042098     LibLocale:multibyte_Utf8.obj
 0003:000007a4       $pdata$AsciiSPrint         00000000000420a4     BasePrintLib:PrintLib.obj
 0003:000007b0       $pdata$BasePrintLibValueToString 00000000000420b0     BasePrintLib:PrintLibInternal.obj
 0003:000007bc       $pdata$BasePrintLibSPrintMarker 00000000000420bc     BasePrintLib:PrintLibInternal.obj
 0003:000007c8       $pdata$BasePrintLibSPrint  00000000000420c8     BasePrintLib:PrintLibInternal.obj
 0003:000007d4       $pdata$printf              00000000000420d4     LibStdio:printf.obj
 0003:000007e0       $pdata$snprintf            00000000000420e0     LibStdio:snprintf.obj
 0003:000007ec       $pdata$__sbprintf          00000000000420ec     LibStdio:vfprintf.obj
 0003:000007f8       $pdata$__ultoa             00000000000420f8     LibStdio:vfprintf.obj
 0003:00000804       $pdata$__wcsconv           0000000000042104     LibStdio:vfprintf.obj
 0003:00000810       $pdata$__vfprintf_unlocked 0000000000042110     LibStdio:vfprintf.obj
 0003:0000081c       $pdata$__find_arguments    000000000004211c     LibStdio:vfprintf.obj
 0003:00000828       $pdata$__grow_type_table   0000000000042128     LibStdio:vfprintf.obj
 0003:00000834       $pdata$cvt                 0000000000042134     LibStdio:vfprintf.obj
 0003:00000840       $pdata$exponent            0000000000042140     LibStdio:vfprintf.obj
 0003:0000084c       $pdata$__sfp               000000000004214c     LibStdio:findfp.obj
 0003:00000858       $pdata$__swsetup           0000000000042158     LibStdio:wsetup.obj
 0003:00000864       $pdata$__sflush            0000000000042164     LibStdio:fflush.obj
 0003:00000870       $pdata$__sfvwrite          0000000000042170     LibStdio:fvwrite.obj
 0003:0000087c       $pdata$__sread             000000000004217c     LibStdio:stdio.obj
 0003:00000888       $pdata$__swrite            0000000000042188     LibStdio:stdio.obj
 0003:00000894       $pdata$__sseek             0000000000042194     LibStdio:stdio.obj
 0003:000008a0       $pdata$__smakebuf          00000000000421a0     LibStdio:makebuf.obj
 0003:000008ac       $pdata$__swhatbuf          00000000000421ac     LibStdio:makebuf.obj
 0003:000008b8       $pdata$_fwalk              00000000000421b8     LibStdio:fwalk.obj
 0003:000008c4       $pdata$abort               00000000000421c4     LibStdLib:Environs.obj
 0003:000008d0       $pdata$exit                00000000000421d0     LibStdLib:Environs.obj
 0003:000008dc       $pdata$getenv              00000000000421dc     LibStdLib:Environs.obj
 0003:000008e8       $pdata$malloc              00000000000421e8     LibStdLib:Malloc.obj
 0003:000008f4       $pdata$calloc              00000000000421f4     LibStdLib:Malloc.obj
 0003:00000900       $pdata$free                0000000000042200     LibStdLib:Malloc.obj
 0003:0000090c       $pdata$realloc             000000000004220c     LibStdLib:Malloc.obj
 0003:00000918       $pdata$InternalAllocatePool 0000000000042218     UefiMemoryAllocationLib:MemoryAllocationLib.obj
 0003:00000924       $pdata$AllocateZeroPool    0000000000042224     UefiMemoryAllocationLib:MemoryAllocationLib.obj
 0003:00000930       $pdata$AllocateCopyPool    0000000000042230     UefiMemoryAllocationLib:MemoryAllocationLib.obj
 0003:0000093c       $pdata$__assert            000000000004223c     LibC:assert.obj
 0003:00000948       $pdata$IIO_Read            0000000000042248     LibIIO:IIO.obj
 0003:00000954       $pdata$IIO_Write           0000000000042254     LibIIO:IIO.obj
 0003:00000960       $pdata$IIO_Echo            0000000000042260     LibIIO:IIO.obj
 0003:0000096c       $pdata$IIO_Delete          000000000004226c     LibIIO:IIO.obj
 0003:00000978       $pdata$New_cIIO            0000000000042278     LibIIO:IIO.obj
 0003:00000984       $pdata$IIO_GetDeviceProto  0000000000042284     LibIIO:IIOutilities.obj
 0003:00000990       $pdata$IIO_GetCursorPosition 0000000000042290     LibIIO:IIOutilities.obj
 0003:0000099c       $pdata$IIO_SetCursorPosition 000000000004229c     LibIIO:IIOutilities.obj
 0003:000009a8       $pdata$IIO_GetOutputSize   00000000000422a8     LibIIO:IIOutilities.obj
 0003:000009b4       $pdata$IIO_WriteOne        00000000000422b4     LibIIO:IIOwrite.obj
 0003:000009c0       $pdata$IIO_EchoOne         00000000000422c0     LibIIO:IIOecho.obj
 0003:000009cc       $pdata$IIO_CanonRead       00000000000422cc     LibIIO:CanonRead.obj
 0003:000009d8       $pdata$BuildBitmap         00000000000422d8     LibWchar:Searching.obj
 0003:000009e4       $pdata$FileHandleGetInfo   00000000000422e4     UefiFileHandleLib:UefiFileHandleLib.obj
 0003:000009f0       $pdata$FileHandleIsDirectory 00000000000422f0     UefiFileHandleLib:UefiFileHandleLib.obj
 0003:000009fc       $pdata$FileHandleGetSize   00000000000422fc     UefiFileHandleLib:UefiFileHandleLib.obj
 0003:00000a08       $pdata$getnameinfo_inet    0000000000042308     BsdSocketLib:getnameinfo.obj
 0003:00000a14       $pdata$ip6_parsenumeric    0000000000042314     BsdSocketLib:getnameinfo.obj
 0003:00000a20       $pdata$getnameinfo_link    0000000000042320     BsdSocketLib:getnameinfo.obj
 0003:00000a2c       $pdata$freeaddrinfo        000000000004232c     BsdSocketLib:getaddrinfo.obj
 0003:00000a38       $pdata$getaddrinfo         0000000000042338     BsdSocketLib:getaddrinfo.obj
 0003:00000a44       $pdata$explore_null        0000000000042344     BsdSocketLib:getaddrinfo.obj
 0003:00000a50       $pdata$explore_numeric     0000000000042350     BsdSocketLib:getaddrinfo.obj
 0003:00000a5c       $pdata$explore_numeric_scope 000000000004235c     BsdSocketLib:getaddrinfo.obj
 0003:00000a68       $pdata$get_ai              0000000000042368     BsdSocketLib:getaddrinfo.obj
 0003:00000a74       $pdata$get_port            0000000000042374     BsdSocketLib:getaddrinfo.obj
 0003:00000a80       $pdata$getanswer           0000000000042380     BsdSocketLib:getaddrinfo.obj
 0003:00000a8c       $pdata$_dns_getaddrinfo    000000000004238c     BsdSocketLib:getaddrinfo.obj
 0003:00000a98       $pdata$_gethtent           0000000000042398     BsdSocketLib:getaddrinfo.obj
 0003:00000aa4       $pdata$_files_getaddrinfo  00000000000423a4     BsdSocketLib:getaddrinfo.obj
 0003:00000ab0       $pdata$res_queryN          00000000000423b0     BsdSocketLib:getaddrinfo.obj
 0003:00000abc       $pdata$res_searchN         00000000000423bc     BsdSocketLib:getaddrinfo.obj
 0003:00000ac8       $pdata$res_querydomainN    00000000000423c8     BsdSocketLib:getaddrinfo.obj
 0003:00000ad4       $pdata$init_services       00000000000423d4     BsdSocketLib:gethostnamadr.obj
 0003:00000ae0       $pdata$gethostbyaddr       00000000000423e0     BsdSocketLib:gethostnamadr.obj
 0003:00000aec       $pdata$sethostent          00000000000423ec     BsdSocketLib:gethostnamadr.obj
 0003:00000af8       $pdata$setservent          00000000000423f8     BsdSocketLib:getservent.obj
 0003:00000b04       $pdata$getservent          0000000000042404     BsdSocketLib:getservent.obj
 0003:00000b10       $pdata$__res_query         0000000000042410     BsdSocketLib:res_query.obj
 0003:00000b1c       $pdata$__hostalias         000000000004241c     BsdSocketLib:res_query.obj
 0003:00000b28       $pdata$__res_init          0000000000042428     BsdSocketLib:res_init.obj
 0003:00000b34       $pdata$res_setoptions      0000000000042434     BsdSocketLib:res_init.obj
 0003:00000b40       $pdata$Aerror              0000000000042440     BsdSocketLib:res_send.obj
 0003:00000b4c       $pdata$Perror              000000000004244c     BsdSocketLib:res_send.obj
 0003:00000b58       $pdata$__res_send          0000000000042458     BsdSocketLib:res_send.obj
 0003:00000b64       $pdata$__res_close         0000000000042464     BsdSocketLib:res_send.obj
 0003:00000b70       $pdata$__res_mkquery       0000000000042470     BsdSocketLib:res_mkquery.obj
 0003:00000b7c       $pdata$__dn_expand         000000000004247c     BsdSocketLib:res_comp.obj
 0003:00000b88       $pdata$getservbyname       0000000000042488     BsdSocketLib:getservbyname.obj
 0003:00000b94       $pdata$BslFdToSocketProtocol 0000000000042494     BsdSocketLib:socket.obj
 0003:00000ba0       $pdata$socket              00000000000424a0     BsdSocketLib:socket.obj
 0003:00000bac       $pdata$inet_pton4          00000000000424ac     BsdSocketLib:inet_pton.obj
 0003:00000bb8       $pdata$inet_pton6          00000000000424b8     BsdSocketLib:inet_pton.obj
 0003:00000bc4       $pdata$gethostent          00000000000424c4     BsdSocketLib:gethostbyht.obj
 0003:00000bd0       $pdata$gethostanswer       00000000000424d0     BsdSocketLib:gethostbydns.obj
 0003:00000bdc       $pdata$_gethostbydnsaddr   00000000000424dc     BsdSocketLib:gethostbydns.obj
 0003:00000be8       $pdata$sendto              00000000000424e8     BsdSocketLib:sendto.obj
 0003:00000bf4       $pdata$recvfrom            00000000000424f4     BsdSocketLib:recvfrom.obj
 0003:00000c00       $pdata$connect             0000000000042500     BsdSocketLib:connect.obj
 0003:00000c0c       $pdata$do_section          000000000004250c     BsdSocketLib:res_debug.obj
 0003:00000c18       $pdata$__fp_nquery         0000000000042518     BsdSocketLib:res_debug.obj
 0003:00000c24       $pdata$__sym_ntos          0000000000042524     BsdSocketLib:res_debug.obj
 0003:00000c30       $pdata$precsize_ntoa       0000000000042530     BsdSocketLib:res_debug.obj
 0003:00000c3c       $pdata$__loc_ntoa          000000000004253c     BsdSocketLib:res_debug.obj
 0003:00000c48       $pdata$__p_secstodate      0000000000042548     BsdSocketLib:res_debug.obj
 0003:00000c54       $pdata$__ns_name_ntop      0000000000042554     BsdSocketLib:ns_name.obj
 0003:00000c60       $pdata$__ns_name_pack      0000000000042560     BsdSocketLib:ns_name.obj
 0003:00000c6c       $pdata$__ns_name_compress  000000000004256c     BsdSocketLib:ns_name.obj
 0003:00000c78       $pdata$BslSocketClose      0000000000042578     BsdSocketLib:close.obj
 0003:00000c84       $pdata$BslSocketPoll       0000000000042584     BsdSocketLib:poll.obj
 0003:00000c90       $pdata$BslSocketRead       0000000000042590     BsdSocketLib:read.obj
 0003:00000c9c       $pdata$BslSocketWrite      000000000004259c     BsdSocketLib:write.obj
 0003:00000ca8       $pdata$_map_v4v6_address   00000000000425a8     BsdSocketLib:map_v4v6.obj
 0003:00000cb4       $pdata$_map_v4v6_hostent   00000000000425b4     BsdSocketLib:map_v4v6.obj
 0003:00000cc0       $pdata$skiprr              00000000000425c0     BsdSocketLib:ns_parse.obj
 0003:00000ccc       $pdata$__ns_initparse      00000000000425cc     BsdSocketLib:ns_parse.obj
 0003:00000cd8       $pdata$__ns_parserr        00000000000425d8     BsdSocketLib:ns_parse.obj
 0003:00000ce4       $pdata$__ns_format_ttl     00000000000425e4     BsdSocketLib:ns_ttl.obj
 0003:00000cf0       $pdata$fmt1                00000000000425f0     BsdSocketLib:ns_ttl.obj
 0003:00000cfc       $pdata$__ns_sprintrrf      00000000000425fc     BsdSocketLib:ns_print.obj
 0003:00000d08       $pdata$charstr             0000000000042608     BsdSocketLib:ns_print.obj
 0003:00000d14       $pdata$addname             0000000000042614     BsdSocketLib:ns_print.obj
 0003:00000d20       $pdata$addlen              0000000000042620     BsdSocketLib:ns_print.obj
 0003:00000d2c       $pdata$addstr              000000000004262c     BsdSocketLib:ns_print.obj
 0003:00000d38       $pdata$addtab              0000000000042638     BsdSocketLib:ns_print.obj
 0003:00000d44       $pdata$__b64_ntop          0000000000042644     BsdSocketLib:base64.obj
 0003:00000d50       $pdata$inet_ntop4          0000000000042650     LibNetUtil:inet_ntop.obj
 0003:00000d5c       $pdata$inet_ntop6          000000000004265c     LibNetUtil:inet_ntop.obj
 0003:00000d68       $pdata$inet_aton           0000000000042668     LibNetUtil:inet_addr.obj
 0003:00000d74       $pdata$inet_ntoa           0000000000042674     LibNetUtil:inet_ntoa.obj
 0003:00000d80       $pdata$selscan             0000000000042680     LibUefi:select.obj
 0003:00000d8c       $pdata$__dtoa              000000000004268c     LibGdtoa:dtoa.obj
 0003:00000d98       $pdata$__nrv_alloc_D2A     0000000000042698     LibGdtoa:dmisc.obj
 0003:00000da4       $pdata$__quorem_D2A        00000000000426a4     LibGdtoa:dmisc.obj
 0003:00000db0       $pdata$__Balloc_D2A        00000000000426b0     LibGdtoa:misc.obj
 0003:00000dbc       $pdata$__multadd_D2A       00000000000426bc     LibGdtoa:misc.obj
 0003:00000dc8       $pdata$__mult_D2A          00000000000426c8     LibGdtoa:misc.obj
 0003:00000dd4       $pdata$__pow5mult_D2A      00000000000426d4     LibGdtoa:misc.obj
 0003:00000de0       $pdata$__lshift_D2A        00000000000426e0     LibGdtoa:misc.obj
 0003:00000dec       $pdata$__diff_D2A          00000000000426ec     LibGdtoa:misc.obj
 0003:00000df8       $pdata$__d2b_D2A           00000000000426f8     LibGdtoa:misc.obj
 0003:00000e04       $pdata$fopen               0000000000042704     LibStdio:fopen.obj
 0003:00000e10       $pdata$fclose              0000000000042710     LibStdio:fclose.obj
 0003:00000e1c       $pdata$fgets               000000000004271c     LibStdio:fgets.obj
 0003:00000e28       $pdata$setbuf              0000000000042728     LibStdio:setbuf.obj
 0003:00000e34       $pdata$sprintf             0000000000042734     LibStdio:sprintf.obj
 0003:00000e40       $pdata$fprintf             0000000000042740     LibStdio:fprintf.obj
 0003:00000e4c       $pdata$__swbuf             000000000004274c     LibStdio:wbuf.obj
 0003:00000e58       $pdata$fputs               0000000000042758     LibStdio:fputs.obj
 0003:00000e64       $pdata$__srefill           0000000000042764     LibStdio:refill.obj
 0003:00000e70       $pdata$fseeko              0000000000042770     LibStdio:fseeko.obj
 0003:00000e7c       $pdata$atoi                000000000004277c     LibStdLib:NumericInt.obj
 0003:00000e88       $pdata$strtoul             0000000000042788     LibStdLib:NumericInt.obj
 0003:00000e94       $pdata$FIFO_IsEmpty        0000000000042794     LibContainer:Fifo.obj
 0003:00000ea0       $pdata$FIFO_IsFull         00000000000427a0     LibContainer:Fifo.obj
 0003:00000eac       $pdata$FIFO_Enqueue        00000000000427ac     LibContainer:Fifo.obj
 0003:00000eb8       $pdata$FIFO_Dequeue        00000000000427b8     LibContainer:Fifo.obj
 0003:00000ec4       $pdata$FIFO_GetRDex        00000000000427c4     LibContainer:Fifo.obj
 0003:00000ed0       $pdata$FIFO_GetWDex        00000000000427d0     LibContainer:Fifo.obj
 0003:00000edc       $pdata$FIFO_Delete         00000000000427dc     LibContainer:Fifo.obj
 0003:00000ee8       $pdata$FIFO_Flush          00000000000427e8     LibContainer:Fifo.obj
 0003:00000ef4       $pdata$FIFO_Truncate       00000000000427f4     LibContainer:Fifo.obj
 0003:00000f00       $pdata$New_cFIFO           0000000000042800     LibContainer:Fifo.obj
 0003:00000f0c       $pdata$strerror            000000000004280c     LibString:Misc.obj
 0003:00000f18       $pdata$strerror_r          0000000000042818     LibString:Misc.obj
 0003:00000f24       $pdata$strdup              0000000000042824     LibString:Copying.obj
 0003:00000f30       $pdata$strncpyX            0000000000042830     LibString:Copying.obj
 0003:00000f3c       $pdata$AsciiStrCmp         000000000004283c     BaseLib:String.obj
 0003:00000f48       $pdata$AsciiStrCpy         0000000000042848     BaseLib:String.obj
 0003:00000f54       $pdata$AsciiStrDecimalToUintn 0000000000042854     BaseLib:String.obj
 0003:00000f60       $pdata$AsciiStrLen         0000000000042860     BaseLib:String.obj
 0003:00000f6c       $pdata$AsciiStrToUnicodeStr 000000000004286c     BaseLib:String.obj
 0003:00000f78       $pdata$AsciiStriCmp        0000000000042878     BaseLib:String.obj
 0003:00000f84       $pdata$AsciiStrnCmp        0000000000042884     BaseLib:String.obj
 0003:00000f90       $pdata$AsciiStrnCpy        0000000000042890     BaseLib:String.obj
 0003:00000f9c       $pdata$StrCmp              000000000004289c     BaseLib:String.obj
 0003:00000fa8       $pdata$StrLen              00000000000428a8     BaseLib:String.obj
 0003:00000fb4       $pdata$StrSize             00000000000428b4     BaseLib:String.obj
 0003:00000fc0       $pdata$StrStr              00000000000428c0     BaseLib:String.obj
 0003:00000fcc       $pdata$StrnCat             00000000000428cc     BaseLib:String.obj
 0003:00000fd8       $pdata$StrnCmp             00000000000428d8     BaseLib:String.obj
 0003:00000fe4       $pdata$StrnCpy             00000000000428e4     BaseLib:String.obj
 0003:00000ff0       $pdata$UnicodeStrToAsciiStr 00000000000428f0     BaseLib:String.obj
 0003:00000ffc       $pdata$ReadUnaligned16     00000000000428fc     BaseLib:Unaligned.obj
 0003:00001008       $pdata$ReadUnaligned32     0000000000042908     BaseLib:Unaligned.obj
 0003:00001014       $pdata$ReadUnaligned64     0000000000042914     BaseLib:Unaligned.obj
 0003:00001020       $pdata$AsciiStrDecimalToUintnS 0000000000042920     BaseLib:SafeString.obj
 0003:0000102c       $pdata$StrnLenS            000000000004292c     BaseLib:SafeString.obj
 0003:00001038       $pdata$GetFirstNode        0000000000042938     BaseLib:LinkedList.obj
 0003:00001044       $pdata$GetNextNode         0000000000042944     BaseLib:LinkedList.obj
 0003:00001050       $pdata$InsertTailList      0000000000042950     BaseLib:LinkedList.obj
 0003:0000105c       $pdata$InternalBaseLibIsListValid 000000000004295c     BaseLib:LinkedList.obj
 0003:00001068       $pdata$IsListEmpty         0000000000042968     BaseLib:LinkedList.obj
 0003:00001074       $pdata$IsNodeInList        0000000000042974     BaseLib:LinkedList.obj
 0003:00001080       $pdata$RemoveEntryList     0000000000042980     BaseLib:LinkedList.obj
 0003:0000108c       $pdata$PathCleanUpDirectories 000000000004298c     BaseLib:FilePaths.obj
 0003:00001098       $pdata$LShiftU64           0000000000042998     BaseLib:LShiftU64.obj
 0003:000010a4       $pdata$DivU64x32Remainder  00000000000429a4     BaseLib:DivU64x32Remainder.obj
 0003:000010b0       $pdata$InternalAssertJumpBuffer 00000000000429b0     BaseLib:SetJump.obj
 0003:000010bc       $pdata$SwapBytes32         00000000000429bc     BaseLib:SwapBytes32.obj
 0003:000010c8       $pdata$CopyMem             00000000000429c8     BaseMemoryLib:CopyMemWrapper.obj
 0003:000010d4       $pdata$CompareGuid         00000000000429d4     BaseMemoryLib:MemLibGuid.obj
 0003:000010e0       $pdata$ZeroMem             00000000000429e0     BaseMemoryLib:ZeroMemWrapper.obj
 0003:000010ec       $pdata$SetMem              00000000000429ec     BaseMemoryLib:SetMemWrapper.obj
 0003:000010f8       $pdata$CompareMem          00000000000429f8     BaseMemoryLib:CompareMemWrapper.obj
 0003:00001104       $pdata$InternalMemSetMem   0000000000042a04     BaseMemoryLib:SetMem.obj
 0003:00001110       $pdata$BuildBitmap         0000000000042a10     LibString:Searching.obj
 0003:0000111c       $pdata$strpbrk             0000000000042a1c     LibString:Searching.obj
 0003:00001128       $pdata$LongJump            0000000000042a28     BaseLib:LongJump.obj
 0003:00001134       $pdata$SetMem16            0000000000042a34     BaseMemoryLib:SetMem16Wrapper.obj
 0003:00001140       $pdata$ScanMem8            0000000000042a40     BaseMemoryLib:ScanMem8Wrapper.obj
 0004:00000000       $unwind$EslServiceFreeProtocol 0000000000042a60     EfiSocketLib:UseEfiSocketLib.obj
 0004:00000000       $unwind$IIO_SetCursorPosition 0000000000042a60     LibIIO:IIOutilities.obj
 0004:00000000       $unwind$AsciiStrnCmp       0000000000042a60     BaseLib:String.obj
 0004:00000000       $unwind$ProcessOneByte     0000000000042a60     LibLocale:multibyte_Utf8.obj
 0004:00000000       $unwind$EslSocketBindTest  0000000000042a60     EfiSocketLib:Socket.obj
 0004:00000000       $unwind$_ModuleEntryPoint  0000000000042a60     UefiApplicationEntryPoint:ApplicationEntryPoint.obj
 0004:00000000       $unwind$StrCmp             0000000000042a60     BaseLib:String.obj
 0004:00000000       $unwind$CopyMem            0000000000042a60     BaseMemoryLib:CopyMemWrapper.obj
 0004:00000000       $unwind$da_ConPoll         0000000000042a60     DevConsole:daConsole.obj
 0004:00000000       $unwind$__nrv_alloc_D2A    0000000000042a60     LibGdtoa:dmisc.obj
 0004:00000000       $unwind$StrLen             0000000000042a60     BaseLib:String.obj
 0004:00000000       $unwind$SetMem             0000000000042a60     BaseMemoryLib:SetMemWrapper.obj
 0004:00000000       $unwind$BslSocketClose     0000000000042a60     BsdSocketLib:close.obj
 0004:00000000       $unwind$exitCleanup        0000000000042a60     LibC:Main.obj
 0004:00000000       $unwind$__pow5mult_D2A     0000000000042a60     LibGdtoa:misc.obj
 0004:00000000       $unwind$SetMem16           0000000000042a60     BaseMemoryLib:SetMem16Wrapper.obj
 0004:00000000       $unwind$addlen             0000000000042a60     BsdSocketLib:ns_print.obj
 0004:00000000       $unwind$gmtsub             0000000000042a60     LibTime:Time.obj
 0004:00000000       $unwind$Perror             0000000000042a60     BsdSocketLib:res_send.obj
 0004:00000000       $unwind$CompareMem         0000000000042a60     BaseMemoryLib:CompareMemWrapper.obj
 0004:00000000       $unwind$DivU64x32Remainder 0000000000042a60     BaseLib:DivU64x32Remainder.obj
 0004:00000000       $unwind$addstr             0000000000042a60     BsdSocketLib:ns_print.obj
 0004:00000000       $unwind$strdup             0000000000042a60     LibString:Copying.obj
 0004:00000000       $unwind$EslSocketIoFree    0000000000042a60     EfiSocketLib:Socket.obj
 0004:00000000       $unwind$StrStr             0000000000042a60     BaseLib:String.obj
 0004:00000000       $unwind$EslTcp6Accept      0000000000042a60     EfiSocketLib:Tcp6.obj
 0004:00000000       $unwind$_map_v4v6_hostent  0000000000042a60     BsdSocketLib:map_v4v6.obj
 0004:00000000       $unwind$EslTcp4Accept      0000000000042a60     EfiSocketLib:Tcp4.obj
 0004:00000000       $unwind$EslSocketPortCloseStart 0000000000042a60     EfiSocketLib:Socket.obj
 0004:00000000       $unwind$StrnLenS           0000000000042a60     BaseLib:SafeString.obj
 0004:00000000       $unwind$close              0000000000042a60     LibUefi:SysCalls.obj
 0004:00000000       $unwind$fopen              0000000000042a60     LibStdio:fopen.obj
 0004:00000000       $unwind$__sflush           0000000000042a60     LibStdio:fflush.obj
 0004:00000000       $unwind$FIFO_Flush         0000000000042a60     LibContainer:Fifo.obj
 0004:00000000       $unwind$__swrite           0000000000042a60     LibStdio:stdio.obj
 0004:00000000       $unwind$EslSocketIsConfigured 0000000000042a60     EfiSocketLib:Socket.obj
 0004:00000000       $unwind$strtoul            0000000000042a60     LibStdLib:NumericInt.obj
 0004:00000000       $unwind$ScanMem8           0000000000042a60     BaseMemoryLib:ScanMem8Wrapper.obj
 0004:00000010       $unwind$ProcessLibraryConstructorList 0000000000042a70     GetNameInfo:AutoGen.obj
 0004:00000010       $unwind$ProcessLibraryDestructorList 0000000000042a70     GetNameInfo:AutoGen.obj
 0004:00000018       $unwind$ProcessModuleEntryPointList 0000000000042a78     GetNameInfo:AutoGen.obj
 0004:00000020       $unwind$ShellCEntryLib     0000000000042a80     UefiShellCEntryLib:UefiShellCEntryLib.obj
 0004:00000030       $unwind$ShellAppMain       0000000000042a90     LibC:Main.obj
 0004:00000048       $unwind$abort              0000000000042aa8     LibStdLib:Environs.obj
 0004:00000048       $unwind$AsciiStrDecimalToUintn 0000000000042aa8     BaseLib:String.obj
 0004:00000048       $unwind$exit               0000000000042aa8     LibStdLib:Environs.obj
 0004:00000048       $unwind$fstat              0000000000042aa8     LibUefi:SysCalls.obj
 0004:00000048       $unwind$da_ShellDelete     0000000000042aa8     DevShell:daShell.obj
 0004:00000048       $unwind$__wchar_deconstruct 0000000000042aa8     LibWchar:ConsDecons.obj
 0004:00000048       $unwind$strerror_r         0000000000042aa8     LibString:Misc.obj
 0004:00000048       $unwind$isatty             0000000000042aa8     LibUefi:SysCalls.obj
 0004:00000048       $unwind$strerror           0000000000042aa8     LibString:Misc.obj
 0004:00000048       $unwind$BslFdToSocketProtocol 0000000000042aa8     BsdSocketLib:socket.obj
 0004:00000048       $unwind$precsize_ntoa      0000000000042aa8     BsdSocketLib:res_debug.obj
 0004:00000048       $unwind$__dtor_DevShell    0000000000042aa8     DevShell:daShell.obj
 0004:00000048       $unwind$__sym_ntos         0000000000042aa8     BsdSocketLib:res_debug.obj
 0004:00000048       $unwind$StrSize            0000000000042aa8     BaseLib:String.obj
 0004:00000048       $unwind$IIO_GetDeviceProto 0000000000042aa8     LibIIO:IIOutilities.obj
 0004:00000048       $unwind$UefiHiiServicesLibConstructor 0000000000042aa8     UefiHiiServicesLib:UefiHiiServicesLib.obj
 0004:00000048       $unwind$da_ShellClose      0000000000042aa8     DevShell:daShell.obj
 0004:00000048       $unwind$BslSocketPoll      0000000000042aa8     BsdSocketLib:poll.obj
 0004:00000048       $unwind$__wchar_construct  0000000000042aa8     LibWchar:ConsDecons.obj
 0004:00000048       $unwind$InternalAllocatePool 0000000000042aa8     UefiMemoryAllocationLib:MemoryAllocationLib.obj
 0004:00000048       $unwind$__res_close        0000000000042aa8     BsdSocketLib:res_send.obj
 0004:00000050       $unwind$EslTcp4PortClose   0000000000042ab0     EfiSocketLib:Tcp4.obj
 0004:00000050       $unwind$AllocateZeroPool   0000000000042ab0     UefiMemoryAllocationLib:MemoryAllocationLib.obj
 0004:00000050       $unwind$FIFO_IsEmpty       0000000000042ab0     LibContainer:Fifo.obj
 0004:00000050       $unwind$ShellIsFile        0000000000042ab0     UefiShellLib:UefiShellLib.obj
 0004:00000050       $unwind$__srefill          0000000000042ab0     LibStdio:refill.obj
 0004:00000050       $unwind$ReadUnaligned64    0000000000042ab0     BaseLib:Unaligned.obj
 0004:00000050       $unwind$strncpyX           0000000000042ab0     LibString:Copying.obj
 0004:00000050       $unwind$RemoveEntryList    0000000000042ab0     BaseLib:LinkedList.obj
 0004:00000050       $unwind$EslSocketPortCloseRxDone 0000000000042ab0     EfiSocketLib:Socket.obj
 0004:00000050       $unwind$ReadUnaligned32    0000000000042ab0     BaseLib:Unaligned.obj
 0004:00000050       $unwind$FIFO_Delete        0000000000042ab0     LibContainer:Fifo.obj
 0004:00000050       $unwind$da_ConSeek         0000000000042ab0     DevConsole:daConsole.obj
 0004:00000050       $unwind$_map_v4v6_address  0000000000042ab0     BsdSocketLib:map_v4v6.obj
 0004:00000050       $unwind$__ultoa            0000000000042ab0     LibStdio:vfprintf.obj
 0004:00000050       $unwind$EncodeUtf8         0000000000042ab0     LibLocale:multibyte_Utf8.obj
 0004:00000050       $unwind$GetFirstNode       0000000000042ab0     BaseLib:LinkedList.obj
 0004:00000050       $unwind$EslTcp6PortClose   0000000000042ab0     EfiSocketLib:Tcp6.obj
 0004:00000050       $unwind$NormalizePath      0000000000042ab0     DevUtility:Path.obj
 0004:00000050       $unwind$tzset              0000000000042ab0     LibTime:ZoneProc.obj
 0004:00000050       $unwind$ReadUnaligned16    0000000000042ab0     BaseLib:Unaligned.obj
 0004:00000050       $unwind$getsecs            0000000000042ab0     LibTime:ZoneProc.obj
 0004:00000050       $unwind$atoi               0000000000042ab0     LibStdLib:NumericInt.obj
 0004:00000050       $unwind$getrule            0000000000042ab0     LibTime:ZoneProc.obj
 0004:00000050       $unwind$EslUdp4RemoteAddressSet 0000000000042ab0     EfiSocketLib:Udp4.obj
 0004:00000050       $unwind$InternalAssertJumpBuffer 0000000000042ab0     BaseLib:SetJump.obj
 0004:00000050       $unwind$FIFO_GetRDex       0000000000042ab0     LibContainer:Fifo.obj
 0004:00000050       $unwind$Efi2Time           0000000000042ab0     LibTime:TimeEfi.obj
 0004:00000050       $unwind$IsListEmpty        0000000000042ab0     BaseLib:LinkedList.obj
 0004:00000050       $unwind$FIFO_GetWDex       0000000000042ab0     LibContainer:Fifo.obj
 0004:00000050       $unwind$getenv             0000000000042ab0     LibStdLib:Environs.obj
 0004:00000050       $unwind$lseek              0000000000042ab0     LibUefi:SysCalls.obj
 0004:00000050       $unwind$EfiGetCurrentTpl   0000000000042ab0     UefiLib:UefiLib.obj
 0004:00000050       $unwind$FileHandleGetSize  0000000000042ab0     UefiFileHandleLib:UefiFileHandleLib.obj
 0004:00000050       $unwind$__sseek            0000000000042ab0     LibStdio:stdio.obj
 0004:00000050       $unwind$__sread            0000000000042ab0     LibStdio:stdio.obj
 0004:00000050       $unwind$FileHandleIsDirectory 0000000000042ab0     UefiFileHandleLib:UefiFileHandleLib.obj
 0004:00000050       $unwind$sethostent         0000000000042ab0     BsdSocketLib:gethostnamadr.obj
 0004:00000050       $unwind$FIFO_Truncate      0000000000042ab0     LibContainer:Fifo.obj
 0004:00000058       $unwind$PathCleanUpDirectories 0000000000042ab8     BaseLib:FilePaths.obj
 0004:00000058       $unwind$UnicodeStrToAsciiStr 0000000000042ab8     BaseLib:String.obj
 0004:00000058       $unwind$AsciiStrToUnicodeStr 0000000000042ab8     BaseLib:String.obj
 0004:00000058       $unwind$EslSocketTxStart   0000000000042ab8     EfiSocketLib:Socket.obj
 0004:00000058       $unwind$da_ShellIoctl      0000000000042ab8     DevShell:daShell.obj
 0004:00000058       $unwind$EslTcp6LocalAddressSet 0000000000042ab8     EfiSocketLib:Tcp6.obj
 0004:00000058       $unwind$StrnCpy            0000000000042ab8     BaseLib:String.obj
 0004:00000058       $unwind$EslTcp6Receive     0000000000042ab8     EfiSocketLib:Tcp6.obj
 0004:00000058       $unwind$EslTcp4Receive     0000000000042ab8     EfiSocketLib:Tcp4.obj
 0004:00000058       $unwind$__DevSearch        0000000000042ab8     DevUtility:DevSearch.obj
 0004:00000058       $unwind$da_ShellRename     0000000000042ab8     DevShell:daShell.obj
 0004:00000058       $unwind$wcsrtombs          0000000000042ab8     LibLocale:multibyte_Utf8.obj
 0004:00000058       $unwind$EslSocketClosePoll 0000000000042ab8     EfiSocketLib:Socket.obj
 0004:00000058       $unwind$ClassifyPath       0000000000042ab8     DevUtility:Path.obj
 0004:00000058       $unwind$da_ConWrite        0000000000042ab8     DevConsole:daConsole.obj
 0004:00000058       $unwind$gethostbyaddr      0000000000042ab8     BsdSocketLib:gethostnamadr.obj
 0004:00000058       $unwind$DecodeOneStateful  0000000000042ab8     LibLocale:multibyte_Utf8.obj
 0004:00000070       $unwind$da_ShellSeek       0000000000042ad0     DevShell:daShell.obj
 0004:00000070       $unwind$EslSocketOptionSet 0000000000042ad0     EfiSocketLib:Socket.obj
 0004:00000070       $unwind$localsub           0000000000042ad0     LibTime:Time.obj
 0004:00000070       $unwind$da_ConRawRead      0000000000042ad0     DevConsole:daConsole.obj
 0004:00000070       $unwind$da_ShellRead       0000000000042ad0     DevShell:daShell.obj
 0004:00000070       $unwind$da_ShellWrite      0000000000042ad0     DevShell:daShell.obj
 0004:00000080       $unwind$da_ConRead         0000000000042ae0     DevConsole:daConsole.obj
 0004:00000098       $unwind$da_ConStat         0000000000042af8     DevConsole:daConsole.obj
 0004:000000a0       $unwind$__multadd_D2A      0000000000042b00     LibGdtoa:misc.obj
 0004:000000a0       $unwind$StrnCmp            0000000000042b00     BaseLib:String.obj
 0004:000000a0       $unwind$connect            0000000000042b00     BsdSocketLib:connect.obj
 0004:000000a0       $unwind$EslUdp6LocalAddressSet 0000000000042b00     EfiSocketLib:Udp6.obj
 0004:000000a0       $unwind$AsciiStrnCpy       0000000000042b00     BaseLib:String.obj
 0004:000000a0       $unwind$EslSocketPortClose 0000000000042b00     EfiSocketLib:Socket.obj
 0004:000000a0       $unwind$get_ai             0000000000042b00     BsdSocketLib:getaddrinfo.obj
 0004:000000a0       $unwind$EslTcp4LocalAddressSet 0000000000042b00     EfiSocketLib:Tcp4.obj
 0004:000000a0       $unwind$CompareGuid        0000000000042b00     BaseMemoryLib:MemLibGuid.obj
 0004:000000a0       $unwind$fclose             0000000000042b00     LibStdio:fclose.obj
 0004:000000a0       $unwind$da_ConFlush        0000000000042b00     DevConsole:daConsole.obj
 0004:000000a0       $unwind$getservbyname      0000000000042b00     BsdSocketLib:getservbyname.obj
 0004:000000a0       $unwind$__DevRegister      0000000000042b00     DevUtility:DevGenisis.obj
 0004:000000a0       $unwind$EslUdp4LocalAddressSet 0000000000042b00     EfiSocketLib:Udp4.obj
 0004:000000a0       $unwind$__sfp              0000000000042b00     LibStdio:findfp.obj
 0004:000000a0       $unwind$InternalMemSetMem  0000000000042b00     BaseMemoryLib:SetMem.obj
 0004:000000b4       $unwind$ShellLibDestructor 0000000000042b14     UefiShellLib:UefiShellLib.obj
 0004:000000b4       $unwind$EslUdp4RemoteAddressGet 0000000000042b14     EfiSocketLib:Udp4.obj
 0004:000000b4       $unwind$InsertTailList     0000000000042b14     BaseLib:LinkedList.obj
 0004:000000b4       $unwind$__swsetup          0000000000042b14     LibStdio:wsetup.obj
 0004:000000b4       $unwind$LShiftU64          0000000000042b14     BaseLib:LShiftU64.obj
 0004:000000b4       $unwind$setservent         0000000000042b14     BsdSocketLib:getservent.obj
 0004:000000b4       $unwind$EslUdp4LocalAddressGet 0000000000042b14     EfiSocketLib:Udp4.obj
 0004:000000b4       $unwind$GetNextNode        0000000000042b14     BaseLib:LinkedList.obj
 0004:000000b4       $unwind$freeaddrinfo       0000000000042b14     BsdSocketLib:getaddrinfo.obj
 0004:000000b4       $unwind$calloc             0000000000042b14     LibStdLib:Malloc.obj
 0004:000000b4       $unwind$AsciiStrLen        0000000000042b14     BaseLib:String.obj
 0004:000000b4       $unwind$ZeroMem            0000000000042b14     BaseMemoryLib:ZeroMemWrapper.obj
 0004:000000b4       $unwind$res_setoptions     0000000000042b14     BsdSocketLib:res_init.obj
 0004:000000b4       $unwind$IsNodeInList       0000000000042b14     BaseLib:LinkedList.obj
 0004:000000b4       $unwind$EstimateWtoM       0000000000042b14     LibLocale:multibyte_Utf8.obj
 0004:000000b4       $unwind$free               0000000000042b14     LibStdLib:Malloc.obj
 0004:000000b4       $unwind$New_cFIFO          0000000000042b14     LibContainer:Fifo.obj
 0004:000000b4       $unwind$EslTcp4LocalAddressGet 0000000000042b14     EfiSocketLib:Tcp4.obj
 0004:000000b4       $unwind$da_ShellStat       0000000000042b14     DevShell:daShell.obj
 0004:000000b4       $unwind$__Balloc_D2A       0000000000042b14     LibGdtoa:misc.obj
 0004:000000b4       $unwind$wcrtomb            0000000000042b14     LibLocale:multibyte_Utf8.obj
 0004:000000b4       $unwind$AsciiStriCmp       0000000000042b14     BaseLib:String.obj
 0004:000000b4       $unwind$AllocateCopyPool   0000000000042b14     UefiMemoryAllocationLib:MemoryAllocationLib.obj
 0004:000000b4       $unwind$EslUdp6LocalAddressGet 0000000000042b14     EfiSocketLib:Udp6.obj
 0004:000000b4       $unwind$write              0000000000042b14     LibUefi:SysCalls.obj
 0004:000000b4       $unwind$EslTcp6RemoteAddressSet 0000000000042b14     EfiSocketLib:Tcp6.obj
 0004:000000b4       $unwind$EslTcp4RemoteAddressGet 0000000000042b14     EfiSocketLib:Tcp4.obj
 0004:000000b4       $unwind$InternalBaseLibIsListValid 0000000000042b14     BaseLib:LinkedList.obj
 0004:000000b4       $unwind$EslTcp4RemoteAddressSet 0000000000042b14     EfiSocketLib:Tcp4.obj
 0004:000000b4       $unwind$da_ConClose        0000000000042b14     DevConsole:daConsole.obj
 0004:000000b4       $unwind$EslTcp6RemoteAddressGet 0000000000042b14     EfiSocketLib:Tcp6.obj
 0004:000000b4       $unwind$EslSocketPortCloseComplete 0000000000042b14     EfiSocketLib:Socket.obj
 0004:000000b4       $unwind$read               0000000000042b14     LibUefi:SysCalls.obj
 0004:000000b4       $unwind$AsciiStrCmp        0000000000042b14     BaseLib:String.obj
 0004:000000b4       $unwind$FIFO_IsFull        0000000000042b14     LibContainer:Fifo.obj
 0004:000000b4       $unwind$EslUdp6RemoteAddressSet 0000000000042b14     EfiSocketLib:Udp6.obj
 0004:000000b4       $unwind$IIO_GetCursorPosition 0000000000042b14     LibIIO:IIOutilities.obj
 0004:000000b4       $unwind$AsciiStrCpy        0000000000042b14     BaseLib:String.obj
 0004:000000b4       $unwind$EslUdp6RemoteAddressGet 0000000000042b14     EfiSocketLib:Udp6.obj
 0004:000000b4       $unwind$LongJump           0000000000042b14     BaseLib:LongJump.obj
 0004:000000b4       $unwind$EslSocketPortCloseTxDone 0000000000042b14     EfiSocketLib:Socket.obj
 0004:000000b4       $unwind$BuildBitmap        0000000000042b14     LibWchar:Searching.obj
 0004:000000b4       $unwind$SwapBytes32        0000000000042b14     BaseLib:SwapBytes32.obj
 0004:000000b4       $unwind$EslTcp4ConnectComplete 0000000000042b14     EfiSocketLib:Tcp4.obj
 0004:000000b4       $unwind$setbuf             0000000000042b14     LibStdio:setbuf.obj
 0004:000000b4       $unwind$EslTcp6ConnectComplete 0000000000042b14     EfiSocketLib:Tcp6.obj
 0004:000000b4       $unwind$EslTcp6LocalAddressGet 0000000000042b14     EfiSocketLib:Tcp6.obj
 0004:000000b4       $unwind$BuildBitmap        0000000000042b14     LibString:Searching.obj
 0004:000000b4       $unwind$getservent         0000000000042b14     BsdSocketLib:getservent.obj
 0004:000000b4       $unwind$time               0000000000042b14     LibTime:Time.obj
 0004:000000b4       $unwind$__Cons_deconstruct 0000000000042b14     DevConsole:daConsole.obj
 0004:000000c0       $unwind$__Cons_construct   0000000000042b20     DevConsole:daConsole.obj
 0004:000000c0       $unwind$EslSocketTransmit  0000000000042b20     EfiSocketLib:Socket.obj
 0004:000000dc       $unwind$EslSocketTxComplete 0000000000042b3c     EfiSocketLib:Socket.obj
 0004:000000dc       $unwind$EslUdp6Receive     0000000000042b3c     EfiSocketLib:Udp6.obj
 0004:000000dc       $unwind$InternalPrint      0000000000042b3c     UefiLib:UefiLibPrint.obj
 0004:000000dc       $unwind$EslUdp4Receive     0000000000042b3c     EfiSocketLib:Udp4.obj
 0004:000000f0       $unwind$printf             0000000000042b50     LibStdio:printf.obj
 0004:000000f0       $unwind$Print              0000000000042b50     UefiLib:UefiLibPrint.obj
 0004:000000f8       $unwind$ShellFindSE2       0000000000042b58     UefiShellLib:UefiShellLib.obj
 0004:0000010c       $unwind$EslTcp4PortAllocate 0000000000042b6c     EfiSocketLib:Tcp4.obj
 0004:0000010c       $unwind$EslTcp6PortAllocate 0000000000042b6c     EfiSocketLib:Tcp6.obj
 0004:0000010c       $unwind$ShellLibConstructorWorker 0000000000042b6c     UefiShellLib:UefiShellLib.obj
 0004:00000118       $unwind$ShellOpenFileByDevicePath 0000000000042b78     UefiShellLib:UefiShellLib.obj
 0004:00000134       $unwind$ShellOpenFileByName 0000000000042b94     UefiShellLib:UefiShellLib.obj
 0004:00000144       $unwind$ShellFindFirstFile 0000000000042ba4     UefiShellLib:UefiShellLib.obj
 0004:00000154       $unwind$da_ShellMkdir      0000000000042bb4     DevShell:daShell.obj
 0004:00000168       $unwind$da_ShellOpen       0000000000042bc8     DevShell:daShell.obj
 0004:00000180       $unwind$da_ShellRmdir      0000000000042be0     DevShell:daShell.obj
 0004:00000194       $unwind$fputs              0000000000042bf4     LibStdio:fputs.obj
 0004:00000194       $unwind$strpbrk            0000000000042bf4     LibString:Searching.obj
 0004:00000194       $unwind$__ctor_DevShell    0000000000042bf4     DevShell:daShell.obj
 0004:0000019c       $unwind$EslServiceNetworkConnect 0000000000042bfc     EfiSocketLib:UseEfiSocketLib.obj
 0004:000001b0       $unwind$EslServiceNetworkDisconnect 0000000000042c10     EfiSocketLib:UseEfiSocketLib.obj
 0004:000001c4       $unwind$EslServiceConnect  0000000000042c24     EfiSocketLib:Service.obj
 0004:000001dc       $unwind$EslSocket          0000000000042c3c     EfiSocketLib:Socket.obj
 0004:000001ec       $unwind$EslSocketAccept    0000000000042c4c     EfiSocketLib:Socket.obj
 0004:000001ec       $unwind$EslSocketGetPeerAddress 0000000000042c4c     EfiSocketLib:Socket.obj
 0004:000001ec       $unwind$EslSocketRxComplete 0000000000042c4c     EfiSocketLib:Socket.obj
 0004:000001ec       $unwind$EslSocketCopyFragmentedBuffer 0000000000042c4c     EfiSocketLib:Socket.obj
 0004:000001ec       $unwind$__ns_initparse     0000000000042c4c     BsdSocketLib:ns_parse.obj
 0004:000001ec       $unwind$FIFO_Enqueue       0000000000042c4c     LibContainer:Fifo.obj
 0004:000001ec       $unwind$EslSocketGetLocalAddress 0000000000042c4c     EfiSocketLib:Socket.obj
 0004:00000208       $unwind$EslSocketAllocate  0000000000042c68     EfiSocketLib:Socket.obj
 0004:00000220       $unwind$EslSocketBind      0000000000042c80     EfiSocketLib:Socket.obj
 0004:00000234       $unwind$EslSocketCloseStart 0000000000042c94     EfiSocketLib:Socket.obj
 0004:0000024c       $unwind$EslSocketConnect   0000000000042cac     EfiSocketLib:Socket.obj
 0004:0000024c       $unwind$EslUdp4SocketIsConfigured 0000000000042cac     EfiSocketLib:Udp4.obj
 0004:00000268       $unwind$EslSocketIoInit    0000000000042cc8     EfiSocketLib:Socket.obj
 0004:00000268       $unwind$EslTcp4Listen      0000000000042cc8     EfiSocketLib:Tcp4.obj
 0004:00000268       $unwind$EslTcp6Listen      0000000000042cc8     EfiSocketLib:Tcp6.obj
 0004:00000268       $unwind$EslSocketListen    0000000000042cc8     EfiSocketLib:Socket.obj
 0004:00000268       $unwind$addname            0000000000042cc8     BsdSocketLib:ns_print.obj
 0004:00000268       $unwind$Aerror             0000000000042cc8     BsdSocketLib:res_send.obj
 0004:00000280       $unwind$EslSocketOptionGet 0000000000042ce0     EfiSocketLib:Socket.obj
 0004:00000298       $unwind$EslSocketPacketAllocate 0000000000042cf8     EfiSocketLib:Socket.obj
 0004:000002ac       $unwind$__quorem_D2A       0000000000042d0c     LibGdtoa:dmisc.obj
 0004:000002ac       $unwind$charstr            0000000000042d0c     BsdSocketLib:ns_print.obj
 0004:000002ac       $unwind$__mult_D2A         0000000000042d0c     LibGdtoa:misc.obj
 0004:000002ac       $unwind$EslSocketPoll      0000000000042d0c     EfiSocketLib:Socket.obj
 0004:000002ac       $unwind$FIFO_Dequeue       0000000000042d0c     LibContainer:Fifo.obj
 0004:000002c8       $unwind$EslSocketPortAllocate 0000000000042d28     EfiSocketLib:Socket.obj
 0004:000002e4       $unwind$EslSocketReceive   0000000000042d44     EfiSocketLib:Socket.obj
 0004:00000300       $unwind$EslSocketRxStart   0000000000042d60     EfiSocketLib:Socket.obj
 0004:00000314       $unwind$EslSocketShutdown  0000000000042d74     EfiSocketLib:Socket.obj
 0004:00000314       $unwind$fgets              0000000000042d74     LibStdio:fgets.obj
 0004:00000314       $unwind$_fwalk             0000000000042d74     LibStdio:fwalk.obj
 0004:00000314       $unwind$__grow_type_table  0000000000042d74     LibStdio:vfprintf.obj
 0004:00000314       $unwind$__diff_D2A         0000000000042d74     LibGdtoa:misc.obj
 0004:00000314       $unwind$addtab             0000000000042d74     BsdSocketLib:ns_print.obj
 0004:0000032c       $unwind$EslTcp4ConnectStart 0000000000042d8c     EfiSocketLib:Tcp4.obj
 0004:0000032c       $unwind$EslTcp6ConnectStart 0000000000042d8c     EfiSocketLib:Tcp6.obj
 0004:00000344       $unwind$EslTcp6ListenComplete 0000000000042da4     EfiSocketLib:Tcp6.obj
 0004:00000358       $unwind$EslTcp6TxBuffer    0000000000042db8     EfiSocketLib:Tcp6.obj
 0004:00000358       $unwind$EslTcp4TxBuffer    0000000000042db8     EfiSocketLib:Tcp4.obj
 0004:00000370       $unwind$EslTcp6TxComplete  0000000000042dd0     EfiSocketLib:Tcp6.obj
 0004:00000370       $unwind$EslTcp6TxOobComplete 0000000000042dd0     EfiSocketLib:Tcp6.obj
 0004:00000370       $unwind$EslTcp4TxComplete  0000000000042dd0     EfiSocketLib:Tcp4.obj
 0004:00000370       $unwind$EslUdp6TxComplete  0000000000042dd0     EfiSocketLib:Udp6.obj
 0004:00000370       $unwind$EslUdp4TxComplete  0000000000042dd0     EfiSocketLib:Udp4.obj
 0004:00000370       $unwind$EslIp4TxComplete   0000000000042dd0     EfiSocketLib:Ip4.obj
 0004:00000370       $unwind$EslTcp4TxOobComplete 0000000000042dd0     EfiSocketLib:Tcp4.obj
 0004:00000378       $unwind$EslTcp6VerifyLocalIpAddress 0000000000042dd8     EfiSocketLib:Tcp6.obj
 0004:00000378       $unwind$EslUdp6VerifyLocalIpAddress 0000000000042dd8     EfiSocketLib:Udp6.obj
 0004:00000388       $unwind$EslIp4Receive      0000000000042de8     EfiSocketLib:Ip4.obj
 0004:00000388       $unwind$realloc            0000000000042de8     LibStdLib:Malloc.obj
 0004:00000388       $unwind$__ns_parserr       0000000000042de8     BsdSocketLib:ns_parse.obj
 0004:000003a0       $unwind$getnameinfo_link   0000000000042e00     BsdSocketLib:getnameinfo.obj
 0004:000003a0       $unwind$explore_numeric_scope 0000000000042e00     BsdSocketLib:getaddrinfo.obj
 0004:000003a0       $unwind$EslIp4SocketIsConfigured 0000000000042e00     EfiSocketLib:Ip4.obj
 0004:000003bc       $unwind$EslIp4TxBuffer     0000000000042e1c     EfiSocketLib:Ip4.obj
 0004:000003bc       $unwind$EslUdp6TxBuffer    0000000000042e1c     EfiSocketLib:Udp6.obj
 0004:000003d8       $unwind$EslTcp4VerifyLocalIpAddress 0000000000042e38     EfiSocketLib:Tcp4.obj
 0004:000003d8       $unwind$EslIp4VerifyLocalIpAddress 0000000000042e38     EfiSocketLib:Ip4.obj
 0004:000003d8       $unwind$EslUdp4VerifyLocalIpAddress 0000000000042e38     EfiSocketLib:Udp4.obj
 0004:000003e8       $unwind$EslTcp4ListenComplete 0000000000042e48     EfiSocketLib:Tcp4.obj
 0004:000003fc       $unwind$EslUdp4TxBuffer    0000000000042e5c     EfiSocketLib:Udp4.obj
 0004:00000414       $unwind$EslUdp6SocketIsConfigured 0000000000042e74     EfiSocketLib:Udp6.obj
 0004:0000042c       $unwind$main               0000000000042e8c     GetNameInfo:GetNameInfo.obj
 0004:00000434       $unwind$ParsePath          0000000000042e94     DevUtility:Path.obj
 0004:0000044c       $unwind$open               0000000000042eac     LibUefi:SysCalls.obj
 0004:00000460       $unwind$timesub            0000000000042ec0     LibTime:Time.obj
 0004:00000474       $unwind$skiprr             0000000000042ed4     BsdSocketLib:ns_parse.obj
 0004:00000474       $unwind$normalize_overflow 0000000000042ed4     LibTime:Time.obj
 0004:0000047c       $unwind$time2sub           0000000000042edc     LibTime:Time.obj
 0004:00000494       $unwind$time1              0000000000042ef4     LibTime:Time.obj
 0004:000004b4       $unwind$Time2Efi           0000000000042f14     LibTime:TimeEfi.obj
 0004:000004c0       $unwind$transtime          0000000000042f20     LibTime:ZoneProc.obj
 0004:000004d8       $unwind$tzparse            0000000000042f38     LibTime:ZoneProc.obj
 0004:000004f0       $unwind$AsciiSPrint        0000000000042f50     BasePrintLib:PrintLib.obj
 0004:000004f8       $unwind$FileHandleGetInfo  0000000000042f58     UefiFileHandleLib:UefiFileHandleLib.obj
 0004:000004f8       $unwind$BasePrintLibValueToString 0000000000042f58     BasePrintLib:PrintLibInternal.obj
 0004:00000504       $unwind$BasePrintLibSPrintMarker 0000000000042f64     BasePrintLib:PrintLibInternal.obj
 0004:00000520       $unwind$BasePrintLibSPrint 0000000000042f80     BasePrintLib:PrintLibInternal.obj
 0004:00000528       $unwind$snprintf           0000000000042f88     LibStdio:snprintf.obj
 0004:00000534       $unwind$__sbprintf         0000000000042f94     LibStdio:vfprintf.obj
 0004:00000548       $unwind$__wcsconv          0000000000042fa8     LibStdio:vfprintf.obj
 0004:00000558       $unwind$__vfprintf_unlocked 0000000000042fb8     LibStdio:vfprintf.obj
 0004:00000574       $unwind$__find_arguments   0000000000042fd4     LibStdio:vfprintf.obj
 0004:0000058c       $unwind$cvt                0000000000042fec     LibStdio:vfprintf.obj
 0004:000005ac       $unwind$exponent           000000000004300c     LibStdio:vfprintf.obj
 0004:000005b4       $unwind$__sfvwrite         0000000000043014     LibStdio:fvwrite.obj
 0004:000005cc       $unwind$__smakebuf         000000000004302c     LibStdio:makebuf.obj
 0004:000005dc       $unwind$__swhatbuf         000000000004303c     LibStdio:makebuf.obj
 0004:000005f0       $unwind$malloc             0000000000043050     LibStdLib:Malloc.obj
 0004:000005fc       $unwind$BslSocketWrite     000000000004305c     BsdSocketLib:write.obj
 0004:000005fc       $unwind$__assert           000000000004305c     LibC:assert.obj
 0004:000005fc       $unwind$BslSocketRead      000000000004305c     BsdSocketLib:read.obj
 0004:00000604       $unwind$IIO_Read           0000000000043064     LibIIO:IIO.obj
 0004:00000618       $unwind$IIO_Write          0000000000043078     LibIIO:IIO.obj
 0004:00000630       $unwind$inet_aton          0000000000043090     LibNetUtil:inet_addr.obj
 0004:00000630       $unwind$IIO_Echo           0000000000043090     LibIIO:IIO.obj
 0004:0000064c       $unwind$IIO_Delete         00000000000430ac     LibIIO:IIO.obj
 0004:00000654       $unwind$New_cIIO           00000000000430b4     LibIIO:IIO.obj
 0004:00000654       $unwind$__swbuf            00000000000430b4     LibStdio:wbuf.obj
 0004:00000660       $unwind$IIO_GetOutputSize  00000000000430c0     LibIIO:IIOutilities.obj
 0004:00000674       $unwind$IIO_WriteOne       00000000000430d4     LibIIO:IIOwrite.obj
 0004:00000690       $unwind$IIO_EchoOne        00000000000430f0     LibIIO:IIOecho.obj
 0004:000006a8       $unwind$IIO_CanonRead      0000000000043108     LibIIO:CanonRead.obj
 0004:000006c0       $unwind$getnameinfo_inet   0000000000043120     BsdSocketLib:getnameinfo.obj
 0004:000006e0       $unwind$ip6_parsenumeric   0000000000043140     BsdSocketLib:getnameinfo.obj
 0004:000006fc       $unwind$getaddrinfo        000000000004315c     BsdSocketLib:getaddrinfo.obj
 0004:00000724       $unwind$AsciiStrDecimalToUintnS 0000000000043184     BaseLib:SafeString.obj
 0004:00000724       $unwind$explore_null       0000000000043184     BsdSocketLib:getaddrinfo.obj
 0004:00000724       $unwind$StrnCat            0000000000043184     BaseLib:String.obj
 0004:00000738       $unwind$explore_numeric    0000000000043198     BsdSocketLib:getaddrinfo.obj
 0004:00000750       $unwind$get_port           00000000000431b0     BsdSocketLib:getaddrinfo.obj
 0004:00000760       $unwind$getanswer          00000000000431c0     BsdSocketLib:getaddrinfo.obj
 0004:00000778       $unwind$_dns_getaddrinfo   00000000000431d8     BsdSocketLib:getaddrinfo.obj
 0004:00000794       $unwind$_gethtent          00000000000431f4     BsdSocketLib:getaddrinfo.obj
 0004:000007ac       $unwind$_files_getaddrinfo 000000000004320c     BsdSocketLib:getaddrinfo.obj
 0004:000007c4       $unwind$res_queryN         0000000000043224     BsdSocketLib:getaddrinfo.obj
 0004:000007e0       $unwind$res_searchN        0000000000043240     BsdSocketLib:getaddrinfo.obj
 0004:000007f8       $unwind$res_querydomainN   0000000000043258     BsdSocketLib:getaddrinfo.obj
 0004:00000814       $unwind$init_services      0000000000043274     BsdSocketLib:gethostnamadr.obj
 0004:00000830       $unwind$__res_query        0000000000043290     BsdSocketLib:res_query.obj
 0004:00000844       $unwind$__hostalias        00000000000432a4     BsdSocketLib:res_query.obj
 0004:0000085c       $unwind$__res_init         00000000000432bc     BsdSocketLib:res_init.obj
 0004:00000874       $unwind$__res_send         00000000000432d4     BsdSocketLib:res_send.obj
 0004:0000088c       $unwind$__res_mkquery      00000000000432ec     BsdSocketLib:res_mkquery.obj
 0004:000008ac       $unwind$__dn_expand        000000000004330c     BsdSocketLib:res_comp.obj
 0004:000008c8       $unwind$socket             0000000000043328     BsdSocketLib:socket.obj
 0004:000008dc       $unwind$inet_pton4         000000000004333c     BsdSocketLib:inet_pton.obj
 0004:000008f4       $unwind$inet_pton6         0000000000043354     BsdSocketLib:inet_pton.obj
 0004:0000090c       $unwind$gethostent         000000000004336c     BsdSocketLib:gethostbyht.obj
 0004:0000091c       $unwind$gethostanswer      000000000004337c     BsdSocketLib:gethostbydns.obj
 0004:00000934       $unwind$_gethostbydnsaddr  0000000000043394     BsdSocketLib:gethostbydns.obj
 0004:00000950       $unwind$sendto             00000000000433b0     BsdSocketLib:sendto.obj
 0004:0000096c       $unwind$recvfrom           00000000000433cc     BsdSocketLib:recvfrom.obj
 0004:00000988       $unwind$do_section         00000000000433e8     BsdSocketLib:res_debug.obj
 0004:000009a8       $unwind$__fp_nquery        0000000000043408     BsdSocketLib:res_debug.obj
 0004:000009c4       $unwind$__loc_ntoa         0000000000043424     BsdSocketLib:res_debug.obj
 0004:000009dc       $unwind$__p_secstodate     000000000004343c     BsdSocketLib:res_debug.obj
 0004:000009e4       $unwind$__ns_name_ntop     0000000000043444     BsdSocketLib:ns_name.obj
 0004:000009fc       $unwind$__ns_name_pack     000000000004345c     BsdSocketLib:ns_name.obj
 0004:00000a10       $unwind$__ns_name_compress 0000000000043470     BsdSocketLib:ns_name.obj
 0004:00000a30       $unwind$__ns_format_ttl    0000000000043490     BsdSocketLib:ns_ttl.obj
 0004:00000a48       $unwind$fmt1               00000000000434a8     BsdSocketLib:ns_ttl.obj
 0004:00000a58       $unwind$__ns_sprintrrf     00000000000434b8     BsdSocketLib:ns_print.obj
 0004:00000a74       $unwind$__b64_ntop         00000000000434d4     BsdSocketLib:base64.obj
 0004:00000a90       $unwind$inet_ntop4         00000000000434f0     LibNetUtil:inet_ntop.obj
 0004:00000a9c       $unwind$inet_ntop6         00000000000434fc     LibNetUtil:inet_ntop.obj
 0004:00000ab4       $unwind$inet_ntoa          0000000000043514     LibNetUtil:inet_ntoa.obj
 0004:00000abc       $unwind$selscan            000000000004351c     LibUefi:select.obj
 0004:00000ad4       $unwind$__dtoa             0000000000043534     LibGdtoa:dtoa.obj
 0004:00000af4       $unwind$__lshift_D2A       0000000000043554     LibGdtoa:misc.obj
 0004:00000b10       $unwind$__d2b_D2A          0000000000043570     LibGdtoa:misc.obj
 0004:00000b1c       $unwind$sprintf            000000000004357c     LibStdio:sprintf.obj
 0004:00000b28       $unwind$fprintf            0000000000043588     LibStdio:fprintf.obj
 0004:00000b30       $unwind$fseeko             0000000000043590     LibStdio:fseeko.obj
