 WebServer

 Timestamp is 5fb88493 (Sat Nov 21 11:08:03 2020)

 Preferred load address is 0000000000000000

 Start         Length     Name                   Class
 0001:00000000 000001d8H .text                   CODE
 0001:000001d8 00021ddbH .text$mn                CODE
 0002:00000000 000005b0H .data                   DATA
 0002:000005b0 00006570H .rdata                  DATA
 0002:00006b20 00002108H .bss                    DATA
 0002:00008c28 00000090H .rdata$zzzdbg           DATA
 0003:00000000 000010c8H .pdata                  DATA
 0004:00000000 00000808H .xdata                  DATA

  Address         Publics by Value              Rva+Base               Lib:Object

 0000:00000000       __dynamic_value_reloc_table 0000000000000000     <absolute>
 0000:00000000       __guard_iat_count          0000000000000000     <absolute>
 0000:00000000       __guard_iat_table          0000000000000000     <absolute>
 0000:00000000       __guard_fids_count         0000000000000000     <absolute>
 0000:00000000       __guard_longjmp_table      0000000000000000     <absolute>
 0000:00000000       __guard_longjmp_count      0000000000000000     <absolute>
 0000:00000000       __guard_fids_table         0000000000000000     <absolute>
 0000:00000000       __guard_flags              0000000000000000     <absolute>
 0000:00000000       __ImageBase                0000000000000000     <linker-defined>
 0001:00000000       SetJump                    00000000000002a0     BaseLib:SetJump.obj
 0001:00000090       AsmEnableCache             0000000000000330     BaseLib:EnableCache.obj
 0001:000000b0       AsmCpuid                   0000000000000350     BaseLib:CpuId.obj
 0001:000000e0       AsmDisableCache            0000000000000380     BaseLib:DisableCache.obj
 0001:00000100       AsmWriteCr4                00000000000003a0     BaseLib:WriteCr4.obj
 0001:00000110       AsmReadCr4                 00000000000003b0     BaseLib:ReadCr4.obj
 0001:00000120       InternalLongJump           00000000000003c0     BaseLib:LongJump.obj
 0001:000001a0       EnableInterrupts           0000000000000440     BaseLib:EnableInterrupts.obj
 0001:000001b0       DisableInterrupts          0000000000000450     BaseLib:DisableInterrupts.obj
 0001:000001c0       AsmReadEflags              0000000000000460     BaseLib:ReadEflags.obj
 0001:000001d0       CpuFlushTlb                0000000000000470     BaseCpuLib:CpuFlushTlb.obj
 0001:000001d8       _ModuleEntryPoint          0000000000000478 f   UefiApplicationEntryPoint:ApplicationEntryPoint.obj
 0001:00000220       UefiBootServicesTableLibConstructor 00000000000004c0 f   UefiBootServicesTableLib:UefiBootServicesTableLib.obj
 0001:0000023c       ProcessLibraryConstructorList 00000000000004dc f   WebServer:AutoGen.obj
 0001:00000778       ProcessLibraryDestructorList 0000000000000a18 f   WebServer:AutoGen.obj
 0001:00000a1c       ProcessModuleEntryPointList 0000000000000cbc f   WebServer:AutoGen.obj
 0001:00000a40       ShellCEntryLib             0000000000000ce0 f   UefiShellCEntryLib:UefiShellCEntryLib.obj
 0001:00000af4       exitCleanup                0000000000000d94 f   LibC:Main.obj
 0001:00000b60       ShellAppMain               0000000000000e00 f   LibC:Main.obj
 0001:00000de4       DebugPrint                 0000000000001084 f   BaseDebugLibNull:DebugLib.obj
 0001:00000df0       DebugAssert                0000000000001090 f   BaseDebugLibNull:DebugLib.obj
 0001:00000df4       DebugAssertEnabled         0000000000001094 f   BaseDebugLibNull:DebugLib.obj
 0001:00000df4       DebugPrintLevelEnabled     0000000000001094 f   BaseDebugLibNull:DebugLib.obj
 0001:00000df4       DebugPrintEnabled          0000000000001094 f   BaseDebugLibNull:DebugLib.obj
 0001:00000df8       __wchar_construct          0000000000001098 f   LibWchar:ConsDecons.obj
 0001:00000e4c       __wchar_deconstruct        00000000000010ec f   LibWchar:ConsDecons.obj
 0001:00000e74       UefiRuntimeServicesTableLibConstructor 0000000000001114 f   UefiRuntimeServicesTableLib:UefiRuntimeServicesTableLib.obj
 0001:00000e84       UefiLibConstructor         0000000000001124 f   UefiLib:UefiLib.obj
 0001:00000e84       fnullop_flush              0000000000001124 f   DevUtility:DevGenisis.obj
 0001:00000e84       fnullop_fcntl              0000000000001124 f   DevUtility:DevGenisis.obj
 0001:00000e88       EfiGetSystemConfigurationTable 0000000000001128 f   UefiLib:UefiLib.obj
 0001:00000f18       EfiGetCurrentTpl           00000000000011b8 f   UefiLib:UefiLib.obj
 0001:00000f48       InternalPrint              00000000000011e8 f   UefiLib:UefiLibPrint.obj
 0001:00000fd0       Print                      0000000000001270 f   UefiLib:UefiLibPrint.obj
 0001:000013ac       da_ConOpen                 000000000000164c f   DevConsole:daConsole.obj
 0001:000015f8       __Cons_construct           0000000000001898 f   DevConsole:daConsole.obj
 0001:00001800       __Cons_deconstruct         0000000000001aa0 f   DevConsole:daConsole.obj
 0001:00001870       ShellFindSE2               0000000000001b10 f   UefiShellLib:UefiShellLib.obj
 0001:00001a20       ShellLibConstructorWorker  0000000000001cc0 f   UefiShellLib:UefiShellLib.obj
 0001:00001cc0       ShellLibConstructor        0000000000001f60 f   UefiShellLib:UefiShellLib.obj
 0001:00001cf4       ShellLibDestructor         0000000000001f94 f   UefiShellLib:UefiShellLib.obj
 0001:00001e08       ShellOpenFileByDevicePath  00000000000020a8 f   UefiShellLib:UefiShellLib.obj
 0001:0000203c       ShellOpenFileByName        00000000000022dc f   UefiShellLib:UefiShellLib.obj
 0001:0000225c       ShellFindFirstFile         00000000000024fc f   UefiShellLib:UefiShellLib.obj
 0001:00002340       ShellIsFile                00000000000025e0 f   UefiShellLib:UefiShellLib.obj
 0001:00002390       UefiHiiServicesLibConstructor 0000000000002630 f   UefiHiiServicesLib:UefiHiiServicesLib.obj
 0001:000029e8       da_ShellOpen               0000000000002c88 f   DevShell:daShell.obj
 0001:00002f88       __ctor_DevShell            0000000000003228 f   DevShell:daShell.obj
 0001:00003084       __dtor_DevShell            0000000000003324 f   DevShell:daShell.obj
 0001:000030c4       DxeServicesTableLibConstructor 0000000000003364 f   DxeServicesTableLib:DxeServicesTableLib.obj
 0001:000030d8       EslConstructor             0000000000003378 f   EfiSocketLib:Init.obj
 0001:000030e0       EslDestructor              0000000000003380 f   EfiSocketLib:Init.obj
 0001:000030e8       EslServiceFreeProtocol     0000000000003388 f   EfiSocketLib:UseEfiSocketLib.obj
 0001:000031c0       EslServiceNetworkConnect   0000000000003460 f   EfiSocketLib:UseEfiSocketLib.obj
 0001:000032d8       EslServiceNetworkDisconnect 0000000000003578 f   EfiSocketLib:UseEfiSocketLib.obj
 0001:000034d8       EslServiceConnect          0000000000003778 f   EfiSocketLib:Service.obj
 0001:000036fc       EslSocket                  000000000000399c f   EfiSocketLib:Socket.obj
 0001:00003828       EslSocketAccept            0000000000003ac8 f   EfiSocketLib:Socket.obj
 0001:00003a14       EslSocketAllocate          0000000000003cb4 f   EfiSocketLib:Socket.obj
 0001:00003bac       EslSocketBind              0000000000003e4c f   EfiSocketLib:Socket.obj
 0001:00003d3c       EslSocketBindTest          0000000000003fdc f   EfiSocketLib:Socket.obj
 0001:00003dc4       EslSocketClosePoll         0000000000004064 f   EfiSocketLib:Socket.obj
 0001:00003ecc       EslSocketCloseStart        000000000000416c f   EfiSocketLib:Socket.obj
 0001:00003fb4       EslSocketConnect           0000000000004254 f   EfiSocketLib:Socket.obj
 0001:00004234       EslSocketCopyFragmentedBuffer 00000000000044d4 f   EfiSocketLib:Socket.obj
 0001:000042d0       EslSocketGetLocalAddress   0000000000004570 f   EfiSocketLib:Socket.obj
 0001:00004470       EslSocketGetPeerAddress    0000000000004710 f   EfiSocketLib:Socket.obj
 0001:00004624       EslSocketIoFree            00000000000048c4 f   EfiSocketLib:Socket.obj
 0001:00004688       EslSocketIoInit            0000000000004928 f   EfiSocketLib:Socket.obj
 0001:00004738       EslSocketIsConfigured      00000000000049d8 f   EfiSocketLib:Socket.obj
 0001:000047d0       EslSocketListen            0000000000004a70 f   EfiSocketLib:Socket.obj
 0001:00004950       EslSocketOptionGet         0000000000004bf0 f   EfiSocketLib:Socket.obj
 0001:00004ae8       EslSocketOptionSet         0000000000004d88 f   EfiSocketLib:Socket.obj
 0001:00004c4c       EslSocketPacketAllocate    0000000000004eec f   EfiSocketLib:Socket.obj
 0001:00004cd0       EslSocketPoll              0000000000004f70 f   EfiSocketLib:Socket.obj
 0001:00004e68       EslSocketPortAllocate      0000000000005108 f   EfiSocketLib:Socket.obj
 0001:000050e8       EslSocketPortClose         0000000000005388 f   EfiSocketLib:Socket.obj
 0001:000052f4       EslSocketPortCloseComplete 0000000000005594 f   EfiSocketLib:Socket.obj
 0001:0000534c       EslSocketPortCloseRxDone   00000000000055ec f   EfiSocketLib:Socket.obj
 0001:00005394       EslSocketPortCloseStart    0000000000005634 f   EfiSocketLib:Socket.obj
 0001:000053fc       EslSocketPortCloseTxDone   000000000000569c f   EfiSocketLib:Socket.obj
 0001:00005498       EslSocketReceive           0000000000005738 f   EfiSocketLib:Socket.obj
 0001:00005930       EslSocketRxComplete        0000000000005bd0 f   EfiSocketLib:Socket.obj
 0001:00005aac       EslSocketRxStart           0000000000005d4c f   EfiSocketLib:Socket.obj
 0001:00005bf4       EslSocketShutdown          0000000000005e94 f   EfiSocketLib:Socket.obj
 0001:00005d18       EslSocketTransmit          0000000000005fb8 f   EfiSocketLib:Socket.obj
 0001:00005ed0       EslSocketTxComplete        0000000000006170 f   EfiSocketLib:Socket.obj
 0001:00005fd4       EslSocketTxStart           0000000000006274 f   EfiSocketLib:Socket.obj
 0001:000060a4       EslTcp6Accept              0000000000006344 f   EfiSocketLib:Tcp6.obj
 0001:00006128       EslTcp6ConnectComplete     00000000000063c8 f   EfiSocketLib:Tcp6.obj
 0001:000061c0       EslTcp6ConnectPoll         0000000000006460 f   EfiSocketLib:Tcp6.obj
 0001:000061c0       EslTcp4ConnectPoll         0000000000006460 f   EfiSocketLib:Tcp4.obj
 0001:00006378       EslTcp6ConnectStart        0000000000006618 f   EfiSocketLib:Tcp6.obj
 0001:00006484       EslTcp6Listen              0000000000006724 f   EfiSocketLib:Tcp6.obj
 0001:00006680       EslTcp6ListenComplete      0000000000006920 f   EfiSocketLib:Tcp6.obj
 0001:00006864       EslTcp6LocalAddressGet     0000000000006b04 f   EfiSocketLib:Tcp6.obj
 0001:000068a8       EslTcp6LocalAddressSet     0000000000006b48 f   EfiSocketLib:Tcp6.obj
 0001:00006940       EslTcp6PacketFree          0000000000006be0 f   EfiSocketLib:Tcp6.obj
 0001:00006940       EslTcp4PacketFree          0000000000006be0 f   EfiSocketLib:Tcp4.obj
 0001:00006948       EslTcp6PortAllocate        0000000000006be8 f   EfiSocketLib:Tcp6.obj
 0001:00006a38       EslTcp6PortClose           0000000000006cd8 f   EfiSocketLib:Tcp6.obj
 0001:00006a8c       EslTcp6PortCloseOp         0000000000006d2c f   EfiSocketLib:Tcp6.obj
 0001:00006aac       EslTcp6Receive             0000000000006d4c f   EfiSocketLib:Tcp6.obj
 0001:00006b78       EslTcp6RemoteAddressGet    0000000000006e18 f   EfiSocketLib:Tcp6.obj
 0001:00006bbc       EslTcp6RemoteAddressSet    0000000000006e5c f   EfiSocketLib:Tcp6.obj
 0001:00006c00       EslTcp4RxComplete          0000000000006ea0 f   EfiSocketLib:Tcp4.obj
 0001:00006c00       EslTcp6RxComplete          0000000000006ea0 f   EfiSocketLib:Tcp6.obj
 0001:00006c28       EslTcp4RxStart             0000000000006ec8 f   EfiSocketLib:Tcp4.obj
 0001:00006c28       EslTcp6RxStart             0000000000006ec8 f   EfiSocketLib:Tcp6.obj
 0001:00006c50       EslTcp6SocketIsConfigured  0000000000006ef0 f   EfiSocketLib:Tcp6.obj
 0001:00006c50       EslTcp4SocketIsConfigured  0000000000006ef0 f   EfiSocketLib:Tcp4.obj
 0001:00006c6c       EslTcp6TxBuffer            0000000000006f0c f   EfiSocketLib:Tcp6.obj
 0001:00006c6c       EslTcp4TxBuffer            0000000000006f0c f   EfiSocketLib:Tcp4.obj
 0001:00006e84       EslTcp4TxComplete          0000000000007124 f   EfiSocketLib:Tcp4.obj
 0001:00006e84       EslTcp6TxComplete          0000000000007124 f   EfiSocketLib:Tcp6.obj
 0001:00006ed8       EslTcp6TxOobComplete       0000000000007178 f   EfiSocketLib:Tcp6.obj
 0001:00006ed8       EslTcp4TxOobComplete       0000000000007178 f   EfiSocketLib:Tcp4.obj
 0001:00006f34       EslTcp6VerifyLocalIpAddress 00000000000071d4 f   EfiSocketLib:Tcp6.obj
 0001:000071bc       EslIp4LocalAddressGet      000000000000745c f   EfiSocketLib:Ip4.obj
 0001:000071dc       EslIp4LocalAddressSet      000000000000747c f   EfiSocketLib:Ip4.obj
 0001:00007284       EslIp4OptionGet            0000000000007524 f   EfiSocketLib:Ip4.obj
 0001:000072b8       EslIp4OptionSet            0000000000007558 f   EfiSocketLib:Ip4.obj
 0001:000072dc       EslIp4PacketFree           000000000000757c f   EfiSocketLib:Ip4.obj
 0001:00007300       EslIp4PortAllocate         00000000000075a0 f   EfiSocketLib:Ip4.obj
 0001:00007398       EslIp4Receive              0000000000007638 f   EfiSocketLib:Ip4.obj
 0001:00007464       EslIp4RemoteAddressGet     0000000000007704 f   EfiSocketLib:Ip4.obj
 0001:00007484       EslIp4RemoteAddressSet     0000000000007724 f   EfiSocketLib:Ip4.obj
 0001:000074bc       EslIp4RxComplete           000000000000775c f   EfiSocketLib:Ip4.obj
 0001:000074e4       EslIp4SocketIsConfigured   0000000000007784 f   EfiSocketLib:Ip4.obj
 0001:0000768c       EslIp4TxBuffer             000000000000792c f   EfiSocketLib:Ip4.obj
 0001:000078c4       EslIp4TxComplete           0000000000007b64 f   EfiSocketLib:Ip4.obj
 0001:000078c4       EslUdp6TxComplete          0000000000007b64 f   EfiSocketLib:Udp6.obj
 0001:00007924       EslIp4VerifyLocalIpAddress 0000000000007bc4 f   EfiSocketLib:Ip4.obj
 0001:00007a58       EslTcp4Accept              0000000000007cf8 f   EfiSocketLib:Tcp4.obj
 0001:00007af8       EslTcp4ConnectComplete     0000000000007d98 f   EfiSocketLib:Tcp4.obj
 0001:00007b90       EslTcp4ConnectStart        0000000000007e30 f   EfiSocketLib:Tcp4.obj
 0001:00007c98       EslTcp4Listen              0000000000007f38 f   EfiSocketLib:Tcp4.obj
 0001:00007e94       EslTcp4ListenComplete      0000000000008134 f   EfiSocketLib:Tcp4.obj
 0001:0000806c       EslTcp4LocalAddressGet     000000000000830c f   EfiSocketLib:Tcp4.obj
 0001:000080b0       EslTcp4LocalAddressSet     0000000000008350 f   EfiSocketLib:Tcp4.obj
 0001:000081c0       EslTcp4PortAllocate        0000000000008460 f   EfiSocketLib:Tcp4.obj
 0001:000082b0       EslTcp4PortClose           0000000000008550 f   EfiSocketLib:Tcp4.obj
 0001:00008304       EslTcp4PortCloseOp         00000000000085a4 f   EfiSocketLib:Tcp4.obj
 0001:00008324       EslTcp4Receive             00000000000085c4 f   EfiSocketLib:Tcp4.obj
 0001:000083f0       EslTcp4RemoteAddressGet    0000000000008690 f   EfiSocketLib:Tcp4.obj
 0001:00008434       EslTcp4RemoteAddressSet    00000000000086d4 f   EfiSocketLib:Tcp4.obj
 0001:000084a8       EslTcp4VerifyLocalIpAddress 0000000000008748 f   EfiSocketLib:Tcp4.obj
 0001:000085dc       EslUdp4LocalAddressGet     000000000000887c f   EfiSocketLib:Udp4.obj
 0001:00008620       EslUdp4LocalAddressSet     00000000000088c0 f   EfiSocketLib:Udp4.obj
 0001:00008724       EslUdp4PacketFree          00000000000089c4 f   EfiSocketLib:Udp4.obj
 0001:00008748       EslUdp4PortAllocate        00000000000089e8 f   EfiSocketLib:Udp4.obj
 0001:000087c8       EslUdp4Receive             0000000000008a68 f   EfiSocketLib:Udp4.obj
 0001:00008864       EslUdp4RemoteAddressGet    0000000000008b04 f   EfiSocketLib:Udp4.obj
 0001:000088a8       EslUdp4RemoteAddressSet    0000000000008b48 f   EfiSocketLib:Udp4.obj
 0001:000088fc       EslUdp4RxComplete          0000000000008b9c f   EfiSocketLib:Udp4.obj
 0001:00008920       EslUdp4SocketIsConfigured  0000000000008bc0 f   EfiSocketLib:Udp4.obj
 0001:00008ac0       EslUdp4TxBuffer            0000000000008d60 f   EfiSocketLib:Udp4.obj
 0001:00008ccc       EslUdp4TxComplete          0000000000008f6c f   EfiSocketLib:Udp4.obj
 0001:00008d2c       EslUdp4VerifyLocalIpAddress 0000000000008fcc f   EfiSocketLib:Udp4.obj
 0001:00008e60       EslUdp6LocalAddressGet     0000000000009100 f   EfiSocketLib:Udp6.obj
 0001:00008ea4       EslUdp6LocalAddressSet     0000000000009144 f   EfiSocketLib:Udp6.obj
 0001:00008f30       EslUdp6PacketFree          00000000000091d0 f   EfiSocketLib:Udp6.obj
 0001:00008f54       EslUdp6PortAllocate        00000000000091f4 f   EfiSocketLib:Udp6.obj
 0001:00008fcc       EslUdp6Receive             000000000000926c f   EfiSocketLib:Udp6.obj
 0001:00009068       EslUdp6RemoteAddressGet    0000000000009308 f   EfiSocketLib:Udp6.obj
 0001:000090ac       EslUdp6RemoteAddressSet    000000000000934c f   EfiSocketLib:Udp6.obj
 0001:000090f0       EslUdp6RxComplete          0000000000009390 f   EfiSocketLib:Udp6.obj
 0001:00009114       EslUdp6SocketIsConfigured  00000000000093b4 f   EfiSocketLib:Udp6.obj
 0001:000092b8       EslUdp6TxBuffer            0000000000009558 f   EfiSocketLib:Udp6.obj
 0001:000094b0       EslUdp6VerifyLocalIpAddress 0000000000009750 f   EfiSocketLib:Udp6.obj
 0001:00009738       PortAdd                    00000000000099d8 f   WebServer:WebServer.obj
 0001:00009b80       PortRemove                 0000000000009e20 f   WebServer:WebServer.obj
 0001:00009d98       PortWork                   000000000000a038 f   WebServer:WebServer.obj
 0001:0000a15c       SocketPoll                 000000000000a3fc f   WebServer:WebServer.obj
 0001:0000a310       WebServerListen            000000000000a5b0 f   WebServer:WebServer.obj
 0001:0000a530       main                       000000000000a7d0 f   WebServer:WebServer.obj
 0001:0000a7ac       HttpCharGet                000000000000aa4c f   WebServer:HTTP.obj
 0001:0000a8dc       HttpFlush                  000000000000ab7c f   WebServer:HTTP.obj
 0001:0000aa08       HttpLowerCase              000000000000aca8 f   WebServer:HTTP.obj
 0001:0000aa34       HttpMatch                  000000000000acd4 f   WebServer:HTTP.obj
 0001:0000aaf4       HttpPageHeader             000000000000ad94 f   WebServer:HTTP.obj
 0001:0000acbc       HttpPageNotFound           000000000000af5c f   WebServer:HTTP.obj
 0001:0000adb8       HttpPageTrailer            000000000000b058 f   WebServer:HTTP.obj
 0001:0000b010       HttpReplaceSpace           000000000000b2b0 f   WebServer:HTTP.obj
 0001:0000b088       HttpRequest                000000000000b328 f   WebServer:HTTP.obj
 0001:0000b330       HttpSend                   000000000000b5d0 f   WebServer:HTTP.obj
 0001:0000b420       HttpSendAnsiString         000000000000b6c0 f   WebServer:HTTP.obj
 0001:0000b498       HttpSendByte               000000000000b738 f   WebServer:HTTP.obj
 0001:0000b4d4       HttpSendCharacter          000000000000b774 f   WebServer:HTTP.obj
 0001:0000b5e0       HttpSendDump               000000000000b880 f   WebServer:HTTP.obj
 0001:0000b984       HttpSendGuid               000000000000bc24 f   WebServer:HTTP.obj
 0001:0000bbe8       HttpSendHexBits            000000000000be88 f   WebServer:HTTP.obj
 0001:0000bc88       HttpSendHexValue           000000000000bf28 f   WebServer:HTTP.obj
 0001:0000bd38       HttpSendIp6Value           000000000000bfd8 f   WebServer:HTTP.obj
 0001:0000beec       HttpSendIpAddress          000000000000c18c f   WebServer:HTTP.obj
 0001:0000c1ec       HttpSendUnicodeString      000000000000c48c f   WebServer:HTTP.obj
 0001:0000c38c       HttpSendValue              000000000000c62c f   WebServer:HTTP.obj
 0001:0000c5d4       LocateRsdt                 000000000000c874 f   WebServer:ACPI.obj
 0001:0000c64c       LocateTable                000000000000c8ec f   WebServer:ACPI.obj
 0001:0000c734       RowAnsiArray               000000000000c9d4 f   WebServer:ACPI.obj
 0001:0000c99c       RowBytes                   000000000000cc3c f   WebServer:ACPI.obj
 0001:0000caf0       RowDump                    000000000000cd90 f   WebServer:ACPI.obj
 0001:0000cbbc       RowGenericAddress          000000000000ce5c f   WebServer:ACPI.obj
 0001:0000cff4       SignatureLookup            000000000000d294 f   WebServer:ACPI.obj
 0001:0000d098       AcpiApicPage               000000000000d338 f   WebServer:ACPI.obj
 0001:0000d24c       AcpiBgrtPage               000000000000d4ec f   WebServer:ACPI.obj
 0001:0000d400       AcpiDsdtPage               000000000000d6a0 f   WebServer:ACPI.obj
 0001:0000d764       AcpiFadtPage               000000000000da04 f   WebServer:ACPI.obj
 0001:0000e744       AcpiHpetPage               000000000000e9e4 f   WebServer:ACPI.obj
 0001:0000e8f8       AcpiMcfgPage               000000000000eb98 f   WebServer:ACPI.obj
 0001:0000eaac       AcpiRsdp10Page             000000000000ed4c f   WebServer:ACPI.obj
 0001:0000ecdc       AcpiRsdp30Page             000000000000ef7c f   WebServer:ACPI.obj
 0001:0000eff8       AcpiRsdtPage               000000000000f298 f   WebServer:ACPI.obj
 0001:0000f428       AcpiSsdtPage               000000000000f6c8 f   WebServer:ACPI.obj
 0001:0000f5dc       AcpiTcpaPage               000000000000f87c f   WebServer:ACPI.obj
 0001:0000f790       AcpiUefiPage               000000000000fa30 f   WebServer:ACPI.obj
 0001:0000f944       RebootPage                 000000000000fbe4 f   WebServer:Reboot.obj
 0001:0000faa8       BootServicesTablePage      000000000000fd48 f   WebServer:BootServicesTable.obj
 0001:00010630       IndexPage                  00000000000108d0 f   WebServer:Index.obj
 0001:000108e8       HelloPage                  0000000000010b88 f   WebServer:Hello.obj
 0001:000109e4       DxeServicesTablePage       0000000000010c84 f   WebServer:DxeServicesTable.obj
 0001:00010ee0       ExitPage                   0000000000011180 f   WebServer:Exit.obj
 0001:00010fe0       DhcpOptionsPage            0000000000011280 f   WebServer:DhcpOptions.obj
 0001:0001133c       HandlePage                 00000000000115dc f   WebServer:Handles.obj
 0001:00011958       MemoryMapPage              0000000000011bf8 f   WebServer:MemoryMap.obj
 0001:00012084       FirmwarePage               0000000000012324 f   WebServer:Firmware.obj
 0001:000121f0       EfiTableHeader             0000000000012490 f   WebServer:SystemTable.obj
 0001:0001238c       RowDecimalValue            000000000001262c f   WebServer:SystemTable.obj
 0001:000124d8       RowHexValue                0000000000012778 f   WebServer:SystemTable.obj
 0001:000126cc       RowPointer                 000000000001296c f   WebServer:SystemTable.obj
 0001:000128f0       RowRevision                0000000000012b90 f   WebServer:SystemTable.obj
 0001:00012a94       RowUnicodeString           0000000000012d34 f   WebServer:SystemTable.obj
 0001:00012be0       TableHeader                0000000000012e80 f   WebServer:SystemTable.obj
 0001:00012d60       TableTrailer               0000000000013000 f   WebServer:SystemTable.obj
 0001:00012e38       SystemTablePage            00000000000130d8 f   WebServer:SystemTable.obj
 0001:000131e4       RowGuid                    0000000000013484 f   WebServer:ConfigurationTable.obj
 0001:000136bc       ConfigurationTablePage     000000000001395c f   WebServer:ConfigurationTable.obj
 0001:0001387c       PortsPage                  0000000000013b1c f   WebServer:Ports.obj
 0001:00013ad0       MtrrDisplayFixedRow        0000000000013d70 f   WebServer:Mtrr.obj
 0001:00013c34       MemoryTypeRegistersPage    0000000000013ed4 f   WebServer:Mtrr.obj
 0001:00014e44       RuntimeSservicesTablePage  00000000000150e4 f   WebServer:RuntimeServicesTable.obj
 0001:00015c54       time                       0000000000015ef4 f   LibTime:Time.obj
 0001:00015d0c       gmtsub                     0000000000015fac f   LibTime:Time.obj
 0001:00015e84       Efi2Time                   0000000000016124 f   LibTime:TimeEfi.obj
 0001:00015ef0       Time2Efi                   0000000000016190 f   LibTime:TimeEfi.obj
 0001:000168a8       tzset                      0000000000016b48 f   LibTime:ZoneProc.obj
 0001:00016c98       DecodeOneStateful          0000000000016f38 f   LibLocale:multibyte_Utf8.obj
 0001:00016d3c       OneWcToMcLen               0000000000016fdc f   LibLocale:multibyte_Utf8.obj
 0001:00016d84       EstimateWtoM               0000000000017024 f   LibLocale:multibyte_Utf8.obj
 0001:00016ddc       EncodeUtf8                 000000000001707c f   LibLocale:multibyte_Utf8.obj
 0001:00016e88       wcrtomb                    0000000000017128 f   LibLocale:multibyte_Utf8.obj
 0001:00016ecc       wcsrtombs                  000000000001716c f   LibLocale:multibyte_Utf8.obj
 0001:00016f98       fbadop_rename              0000000000017238 f   DevUtility:DevGenisis.obj
 0001:00016f98       fbadop_delete              0000000000017238 f   DevUtility:DevGenisis.obj
 0001:00016f98       fbadop_rmdir               0000000000017238 f   DevUtility:DevGenisis.obj
 0001:00016f98       fbadop_mkdir               0000000000017238 f   DevUtility:DevGenisis.obj
 0001:00016f98       fbadop_stat                0000000000017238 f   DevUtility:DevGenisis.obj
 0001:00016f98       fbadop_ioctl               0000000000017238 f   DevUtility:DevGenisis.obj
 0001:00016fa8       __DevRegister              0000000000017248 f   DevUtility:DevGenisis.obj
 0001:00017074       ClassifyPath               0000000000017314 f   DevUtility:Path.obj
 0001:0001715c       NormalizePath              00000000000173fc f   DevUtility:Path.obj
 0001:000171dc       ParsePath                  000000000001747c f   DevUtility:Path.obj
 0001:000175b0       __DevSearch                0000000000017850 f   DevUtility:DevSearch.obj
 0001:00017664       ValidateFD                 0000000000017904 f   LibUefi:SysCalls.obj
 0001:00017690       FindFreeFD                 0000000000017930 f   LibUefi:SysCalls.obj
 0001:000176d0       isatty                     0000000000017970 f   LibUefi:SysCalls.obj
 0001:00017714       close                      00000000000179b4 f   LibUefi:SysCalls.obj
 0001:000177e0       lseek                      0000000000017a80 f   LibUefi:SysCalls.obj
 0001:00017854       open                       0000000000017af4 f   LibUefi:SysCalls.obj
 0001:000179ac       poll                       0000000000017c4c f   LibUefi:SysCalls.obj
 0001:00017b34       EFI2errno                  0000000000017dd4 f   LibUefi:Xform.obj
 0001:00018134       __vfprintf_unlocked        00000000000183d4 f   LibStdio:vfprintf.obj
 0001:0001aec4       __swsetup                  000000000001b164 f   LibStdio:wsetup.obj
 0001:0001af7c       fflush                     000000000001b21c f   LibStdio:fflush.obj
 0001:0001b010       __sflush                   000000000001b2b0 f   LibStdio:fflush.obj
 0001:0001b098       __sfvwrite                 000000000001b338 f   LibStdio:fvwrite.obj
 0001:0001b3a4       __smakebuf                 000000000001b644 f   LibStdio:makebuf.obj
 0001:0001b470       __swhatbuf                 000000000001b710 f   LibStdio:makebuf.obj
 0001:0001b54c       _cleanup                   000000000001b7ec f   LibStdio:findfp.obj
 0001:0001b554       __sinit                    000000000001b7f4 f   LibStdio:findfp.obj
 0001:0001b59c       __sread                    000000000001b83c f   LibStdio:stdio.obj
 0001:0001b668       __swrite                   000000000001b908 f   LibStdio:stdio.obj
 0001:0001b738       __sseek                    000000000001b9d8 f   LibStdio:stdio.obj
 0001:0001b788       __sclose                   000000000001ba28 f   LibStdio:stdio.obj
 0001:0001b7a4       abort                      000000000001ba44 f   LibStdLib:Environs.obj
 0001:0001b824       exit                       000000000001bac4 f   LibStdLib:Environs.obj
 0001:0001b858       malloc                     000000000001baf8 f   LibStdLib:Malloc.obj
 0001:0001b91c       calloc                     000000000001bbbc f   LibStdLib:Malloc.obj
 0001:0001b95c       free                       000000000001bbfc f   LibStdLib:Malloc.obj
 0001:0001b9dc       realloc                    000000000001bc7c f   LibStdLib:Malloc.obj
 0001:0001babc       InternalAllocatePool       000000000001bd5c f   UefiMemoryAllocationLib:MemoryAllocationLib.obj
 0001:0001baec       AllocateZeroPool           000000000001bd8c f   UefiMemoryAllocationLib:MemoryAllocationLib.obj
 0001:0001bb14       AllocateCopyPool           000000000001bdb4 f   UefiMemoryAllocationLib:MemoryAllocationLib.obj
 0001:0001bb4c       FreePool                   000000000001bdec f   UefiMemoryAllocationLib:MemoryAllocationLib.obj
 0001:0001bb58       AsciiSPrint                000000000001bdf8 f   BasePrintLib:PrintLib.obj
 0001:0001bb80       BasePrintLibFillBuffer     000000000001be20 f   BasePrintLib:PrintLibInternal.obj
 0001:0001bbb4       BasePrintLibValueToString  000000000001be54 f   BasePrintLib:PrintLibInternal.obj
 0001:0001bc04       BasePrintLibSPrintMarker   000000000001bea4 f   BasePrintLib:PrintLibInternal.obj
 0001:0001c994       BasePrintLibSPrint         000000000001cc34 f   BasePrintLib:PrintLibInternal.obj
 0001:0001c9b8       bswap16                    000000000001cc58 f   LibC:ByteSwap.obj
 0001:0001c9c0       __assert                   000000000001cc60 f   LibC:assert.obj
 0001:0001cfc4       New_cIIO                   000000000001d264 f   LibIIO:IIO.obj
 0001:0001d0c0       IIO_GetDeviceProto         000000000001d360 f   LibIIO:IIOutilities.obj
 0001:0001d100       IIO_GetCursorPosition      000000000001d3a0 f   LibIIO:IIOutilities.obj
 0001:0001d16c       IIO_SetCursorPosition      000000000001d40c f   LibIIO:IIOutilities.obj
 0001:0001d1f8       IIO_GetOutputSize          000000000001d498 f   LibIIO:IIOutilities.obj
 0001:0001d2a8       IIO_WriteOne               000000000001d548 f   LibIIO:IIOwrite.obj
 0001:0001d4e8       IIO_EchoOne                000000000001d788 f   LibIIO:IIOecho.obj
 0001:0001d6f8       IIO_CanonRead              000000000001d998 f   LibIIO:CanonRead.obj
 0001:0001d9b0       FileHandleGetInfo          000000000001dc50 f   UefiFileHandleLib:UefiFileHandleLib.obj
 0001:0001da38       FileHandleSetInfo          000000000001dcd8 f   UefiFileHandleLib:UefiFileHandleLib.obj
 0001:0001da60       FileHandleRead             000000000001dd00 f   UefiFileHandleLib:UefiFileHandleLib.obj
 0001:0001da74       FileHandleWrite            000000000001dd14 f   UefiFileHandleLib:UefiFileHandleLib.obj
 0001:0001da88       FileHandleClose            000000000001dd28 f   UefiFileHandleLib:UefiFileHandleLib.obj
 0001:0001da9c       FileHandleDelete           000000000001dd3c f   UefiFileHandleLib:UefiFileHandleLib.obj
 0001:0001dab0       FileHandleSetPosition      000000000001dd50 f   UefiFileHandleLib:UefiFileHandleLib.obj
 0001:0001dac4       FileHandleGetPosition      000000000001dd64 f   UefiFileHandleLib:UefiFileHandleLib.obj
 0001:0001dae0       FileHandleFlush            000000000001dd80 f   UefiFileHandleLib:UefiFileHandleLib.obj
 0001:0001daf4       FileHandleIsDirectory      000000000001dd94 f   UefiFileHandleLib:UefiFileHandleLib.obj
 0001:0001db40       FileHandleGetSize          000000000001dde0 f   UefiFileHandleLib:UefiFileHandleLib.obj
 0001:0001db94       recv                       000000000001de34 f   BsdSocketLib:recv.obj
 0001:0001dba4       BslFdToSocketProtocol      000000000001de44 f   BsdSocketLib:socket.obj
 0001:0001dc0c       BslSocketProtocolToFd      000000000001deac f   BsdSocketLib:socket.obj
 0001:0001dc78       socket                     000000000001df18 f   BsdSocketLib:socket.obj
 0001:0001dd08       listen                     000000000001dfa8 f   BsdSocketLib:listen.obj
 0001:0001dd40       bind                       000000000001dfe0 f   BsdSocketLib:bind.obj
 0001:0001dd88       AcceptWork                 000000000001e028 f   BsdSocketLib:accept.obj
 0001:0001de3c       accept                     000000000001e0dc f   BsdSocketLib:accept.obj
 0001:0001de48       send                       000000000001e0e8 f   BsdSocketLib:send.obj
 0001:0001df24       getsockname                000000000001e1c4 f   BsdSocketLib:getsockname.obj
 0001:0001df78       getpeername                000000000001e218 f   BsdSocketLib:getpeername.obj
 0001:0001dfcc       recvfrom                   000000000001e26c f   BsdSocketLib:recvfrom.obj
 0001:0001e200       BslSocketCloseWork         000000000001e4a0 f   BsdSocketLib:close.obj
 0001:0001e270       BslSocketClose             000000000001e510 f   BsdSocketLib:close.obj
 0001:0001e2b8       BslSocketPoll              000000000001e558 f   BsdSocketLib:poll.obj
 0001:0001e30c       BslSocketRead              000000000001e5ac f   BsdSocketLib:read.obj
 0001:0001e324       BslSocketWrite             000000000001e5c4 f   BsdSocketLib:write.obj
 0001:0001e334       MtrrGetFixedMtrrWorker     000000000001e5d4 f   MtrrLib:MtrrLib.obj
 0001:0001e38c       MtrrGetVariableMtrrWorker  000000000001e62c f   MtrrLib:MtrrLib.obj
 0001:0001e3f4       MtrrGetAllMtrrs            000000000001e694 f   MtrrLib:MtrrLib.obj
 0001:0001e440       IsMtrrSupported            000000000001e6e0 f   MtrrLib:MtrrLib.obj
 0001:0001e48c       __dtoa                     000000000001e72c f   LibGdtoa:dtoa.obj
 0001:0001f244       __nrv_alloc_D2A            000000000001f4e4 f   LibGdtoa:dmisc.obj
 0001:0001f2d0       __quorem_D2A               000000000001f570 f   LibGdtoa:dmisc.obj
 0001:0001f418       __Balloc_D2A               000000000001f6b8 f   LibGdtoa:misc.obj
 0001:0001f4bc       __lo0bits_D2A              000000000001f75c f   LibGdtoa:misc.obj
 0001:0001f530       __multadd_D2A              000000000001f7d0 f   LibGdtoa:misc.obj
 0001:0001f600       __hi0bits_D2A              000000000001f8a0 f   LibGdtoa:misc.obj
 0001:0001f650       __mult_D2A                 000000000001f8f0 f   LibGdtoa:misc.obj
 0001:0001f780       __pow5mult_D2A             000000000001fa20 f   LibGdtoa:misc.obj
 0001:0001f854       __lshift_D2A               000000000001faf4 f   LibGdtoa:misc.obj
 0001:0001f964       __cmp_D2A                  000000000001fc04 f   LibGdtoa:misc.obj
 0001:0001f9a8       __diff_D2A                 000000000001fc48 f   LibGdtoa:misc.obj
 0001:0001fae0       __d2b_D2A                  000000000001fd80 f   LibGdtoa:misc.obj
 0001:0001feb0       localeconv                 0000000000020150 f   LibLocale:localeconv.obj
 0001:0001ff90       printf                     0000000000020230 f   LibStdio:printf.obj
 0001:000204ec       New_cFIFO                  000000000002078c f   LibContainer:Fifo.obj
 0001:000205dc       memset                     000000000002087c f   LibString:Misc.obj
 0001:000205ec       strerror                   000000000002088c f   LibString:Misc.obj
 0001:00020620       strerror_r                 00000000000208c0 f   LibString:Misc.obj
 0001:00020688       strlen                     0000000000020928 f   LibString:Misc.obj
 0001:00020690       memcpy                     0000000000020930 f   LibString:Copying.obj
 0001:00020698       strdup                     0000000000020938 f   LibString:Copying.obj
 0001:000206e8       strncpy                    0000000000020988 f   LibString:Copying.obj
 0001:000206f0       strncpyX                   0000000000020990 f   LibString:Copying.obj
 0001:00020730       strcmp                     00000000000209d0 f   LibString:Comparison.obj
 0001:00020738       AsciiStrCmp                00000000000209d8 f   BaseLib:String.obj
 0001:000207d0       AsciiStrLen                0000000000020a70 f   BaseLib:String.obj
 0001:00020858       AsciiStrToUnicodeStr       0000000000020af8 f   BaseLib:String.obj
 0001:000209a0       AsciiStrnCpy               0000000000020c40 f   BaseLib:String.obj
 0001:00020abc       StrCmp                     0000000000020d5c f   BaseLib:String.obj
 0001:00020b70       StrLen                     0000000000020e10 f   BaseLib:String.obj
 0001:00020c28       StrSize                    0000000000020ec8 f   BaseLib:String.obj
 0001:00020c40       StrStr                     0000000000020ee0 f   BaseLib:String.obj
 0001:00020d1c       StrnCat                    0000000000020fbc f   BaseLib:String.obj
 0001:00020dac       StrnCmp                    000000000002104c f   BaseLib:String.obj
 0001:00020ebc       StrnCpy                    000000000002115c f   BaseLib:String.obj
 0001:00021010       UnicodeStrToAsciiStr       00000000000212b0 f   BaseLib:String.obj
 0001:0002117c       ReadUnaligned16            000000000002141c f   BaseLib:Unaligned.obj
 0001:000211b4       ReadUnaligned32            0000000000021454 f   BaseLib:Unaligned.obj
 0001:000211ec       ReadUnaligned64            000000000002148c f   BaseLib:Unaligned.obj
 0001:00021224       AsciiStrnLenS              00000000000214c4 f   BaseLib:SafeString.obj
 0001:00021250       StrnLenS                   00000000000214f0 f   BaseLib:SafeString.obj
 0001:000212cc       GetFirstNode               000000000002156c f   BaseLib:LinkedList.obj
 0001:0002130c       GetNextNode                00000000000215ac f   BaseLib:LinkedList.obj
 0001:00021384       InsertTailList             0000000000021624 f   BaseLib:LinkedList.obj
 0001:0002140c       InternalBaseLibIsListValid 00000000000216ac f   BaseLib:LinkedList.obj
 0001:000214c4       IsListEmpty                0000000000021764 f   BaseLib:LinkedList.obj
 0001:00021508       IsNodeInList               00000000000217a8 f   BaseLib:LinkedList.obj
 0001:000215b0       RemoveEntryList            0000000000021850 f   BaseLib:LinkedList.obj
 0001:00021604       PathCleanUpDirectories     00000000000218a4 f   BaseLib:FilePaths.obj
 0001:00021760       PathRemoveLastItem         0000000000021a00 f   BaseLib:FilePaths.obj
 0001:000217bc       LShiftU64                  0000000000021a5c f   BaseLib:LShiftU64.obj
 0001:00021808       SwapBytes16                0000000000021aa8 f   BaseLib:SwapBytes16.obj
 0001:00021818       AsmReadMsr64               0000000000021ab8 f   BaseLib:ReadMsr64.obj
 0001:00021824       DivU64x32Remainder         0000000000021ac4 f   BaseLib:DivU64x32Remainder.obj
 0001:0002187c       InternalAssertJumpBuffer   0000000000021b1c f   BaseLib:SetJump.obj
 0001:000218d8       InternalMathDivRemU64x32   0000000000021b78 f   BaseLib:Math64.obj
 0001:000218f4       InternalMathLShiftU64      0000000000021b94 f   BaseLib:Math64.obj
 0001:00021900       CopyMem                    0000000000021ba0 f   BaseMemoryLib:CopyMemWrapper.obj
 0001:000219a8       CompareGuid                0000000000021c48 f   BaseMemoryLib:MemLibGuid.obj
 0001:00021a10       ZeroMem                    0000000000021cb0 f   BaseMemoryLib:ZeroMemWrapper.obj
 0001:00021a90       SetMem                     0000000000021d30 f   BaseMemoryLib:SetMemWrapper.obj
 0001:00021b00       InternalMemCopyMem         0000000000021da0 f   BaseMemoryLib:CopyMem.obj
 0001:00021cb4       InternalMemScanMem8        0000000000021f54 f   BaseMemoryLib:MemLibGeneric.obj
 0001:00021ccc       InternalMemSetMem16        0000000000021f6c f   BaseMemoryLib:MemLibGeneric.obj
 0001:00021cec       InternalMemZeroMem         0000000000021f8c f   BaseMemoryLib:MemLibGeneric.obj
 0001:00021cf4       InternalMemSetMem          0000000000021f94 f   BaseMemoryLib:SetMem.obj
 0001:00021dd4       memchr                     0000000000022074 f   LibString:Searching.obj
 0001:00021de4       LongJump                   0000000000022084 f   BaseLib:LongJump.obj
 0001:00021e34       SetMem16                   00000000000220d4 f   BaseMemoryLib:SetMem16Wrapper.obj
 0001:00021f20       ScanMem8                   00000000000221c0 f   BaseMemoryLib:ScanMem8Wrapper.obj
 0002:00000000       _cClass                    0000000000022260     LibCtype:iCtype.obj
 0002:00000008       gEfiMemoryTypeInformationGuid 0000000000022268     WebServer:AutoGen.obj
 0002:00000018       gEfiUnicodeCollation2ProtocolGuid 0000000000022278     WebServer:AutoGen.obj
 0002:00000028       gLoadFixedAddressConfigurationTableGuid 0000000000022288     WebServer:AutoGen.obj
 0002:00000038       gEfiShellEnvironment2ExtGuid 0000000000022298     WebServer:AutoGen.obj
 0002:00000048       gEfiFileInfoGuid           00000000000222a8     WebServer:AutoGen.obj
 0002:00000058       gEfiIp6ConfigProtocolGuid  00000000000222b8     WebServer:AutoGen.obj
 0002:00000068       gEfiHiiConfigRoutingProtocolGuid 00000000000222c8     WebServer:AutoGen.obj
 0002:00000078       gEfiAcpi10TableGuid        00000000000222d8     WebServer:AutoGen.obj
 0002:00000088       gEfiUdp4ServiceBindingProtocolGuid 00000000000222e8     WebServer:AutoGen.obj
 0002:00000098       gEfiAcpiTableGuid          00000000000222f8     WebServer:AutoGen.obj
 0002:000000a8       gEfiIp4Config2ProtocolGuid 0000000000022308     WebServer:AutoGen.obj
 0002:000000b8       gEfiHiiImageProtocolGuid   0000000000022318     WebServer:AutoGen.obj
 0002:000000c8       gEfiIp4ServiceBindingProtocolGuid 0000000000022328     WebServer:AutoGen.obj
 0002:000000d8       gEfiDebugImageInfoTableGuid 0000000000022338     WebServer:AutoGen.obj
 0002:000000e8       gEfiUdp6ProtocolGuid       0000000000022348     WebServer:AutoGen.obj
 0002:000000f8       gEfiShellParametersProtocolGuid 0000000000022358     WebServer:AutoGen.obj
 0002:00000108       gEfiHiiDatabaseProtocolGuid 0000000000022368     WebServer:AutoGen.obj
 0002:00000118       gEfiSimpleFileSystemProtocolGuid 0000000000022378     WebServer:AutoGen.obj
 0002:00000128       gEfiHiiStringProtocolGuid  0000000000022388     WebServer:AutoGen.obj
 0002:00000138       gEfiUdp6ServiceBindingProtocolGuid 0000000000022398     WebServer:AutoGen.obj
 0002:00000148       gEfiShellEnvironment2Guid  00000000000223a8     WebServer:AutoGen.obj
 0002:00000158       gEfiHobListGuid            00000000000223b8     WebServer:AutoGen.obj
 0002:00000168       gEfiIp4ProtocolGuid        00000000000223c8     WebServer:AutoGen.obj
 0002:00000178       gEfiSocketProtocolGuid     00000000000223d8     WebServer:AutoGen.obj
 0002:00000188       gEfiShellProtocolGuid      00000000000223e8     WebServer:AutoGen.obj
 0002:00000198       gEfiUdp4ProtocolGuid       00000000000223f8     WebServer:AutoGen.obj
 0002:000001a8       gEfiTcp4ServiceBindingProtocolGuid 0000000000022408     WebServer:AutoGen.obj
 0002:000001b8       gEfiDxeServicesTableGuid   0000000000022418     WebServer:AutoGen.obj
 0002:000001c8       gEfiCallerIdGuid           0000000000022428     WebServer:AutoGen.obj
 0002:000001d8       gEfiDhcp4ProtocolGuid      0000000000022438     WebServer:AutoGen.obj
 0002:000001e8       gEfiTcp6ServiceBindingProtocolGuid 0000000000022448     WebServer:AutoGen.obj
 0002:000001f8       gEfiTcp6ProtocolGuid       0000000000022458     WebServer:AutoGen.obj
 0002:00000208       gEfiShellInterfaceGuid     0000000000022468     WebServer:AutoGen.obj
 0002:00000218       gEfiTcp4ProtocolGuid       0000000000022478     WebServer:AutoGen.obj
 0002:00000228       gEfiHiiFontProtocolGuid    0000000000022488     WebServer:AutoGen.obj
 0002:00000238       _fltused                   0000000000022498     LibC:errno.obj
 0002:00000240       cEslAfInet6Api             00000000000224a0     EfiSocketLib:Socket.obj
 0002:00000270       cEslAfInetApi              00000000000224d0     EfiSocketLib:Socket.obj
 0002:000002a0       mpMemoryType               0000000000022500     WebServer:MemoryMap.obj
 0002:000002c0       mMemoryType                0000000000022520     WebServer:Mtrr.obj
 0002:00000300       tzname                     0000000000022560     LibTime:ZoneProc.obj
 0002:00000310       daDeviceList               0000000000022570     DevUtility:DevGenisis.obj
 0002:00000340       __sF                       00000000000225a0     LibStdio:findfp.obj
 0002:00000550       __sglue                    00000000000227b0     LibStdio:findfp.obj
 0002:000005a8       __nlocale_changed          0000000000022808     LibLocale:localeconv.obj
 0002:000005ac       __mlocale_changed          000000000002280c     LibLocale:localeconv.obj
 0002:000005b0       ??_C@_0BD@FPJCFKFJ@Unknown?5Error?3?5?$CFd?4?$AA@ 0000000000022810     LibString:Misc.obj
 0002:000005d0       sys_errlist                0000000000022830     LibString:ErrorList.obj
 0002:000008f0       ??_C@_0BC@CMDFCGIM@No?5Error?5Detected?$AA@ 0000000000022b50     LibString:ErrorList.obj
 0002:00000908       ??_C@_0BI@BJFCGOHL@Operation?5not?5permitted?$AA@ 0000000000022b68     LibString:ErrorList.obj
 0002:00000920       ??_C@_0BK@FMDHKPNF@No?5such?5file?5or?5directory?$AA@ 0000000000022b80     LibString:ErrorList.obj
 0002:00000940       ??_C@_0BA@FKIAIBGA@No?5such?5process?$AA@ 0000000000022ba0     LibString:ErrorList.obj
 0002:00000950       ??_C@_0BI@EAGLFFDI@Interrupted?5system?5call?$AA@ 0000000000022bb0     LibString:ErrorList.obj
 0002:00000968       ??_C@_0BD@KKNFOBBD@Input?1output?5error?$AA@ 0000000000022bc8     LibString:ErrorList.obj
 0002:00000980       ??_C@_0BG@IEPFGEGM@Device?5not?5configured?$AA@ 0000000000022be0     LibString:ErrorList.obj
 0002:00000998       ??_C@_0BH@CCELHCFA@Argument?5list?5too?5long?$AA@ 0000000000022bf8     LibString:ErrorList.obj
 0002:000009b0       ??_C@_0BC@HKPNECK@Exec?5format?5error?$AA@ 0000000000022c10     LibString:ErrorList.obj
 0002:000009c8       ??_C@_0BE@NFGDDCEF@Bad?5file?5descriptor?$AA@ 0000000000022c28     LibString:ErrorList.obj
 0002:000009e0       ??_C@_0BD@LOHELEP@No?5child?5processes?$AA@ 0000000000022c40     LibString:ErrorList.obj
 0002:000009f8       ??_C@_0BK@JAEBMJJM@Resource?5deadlock?5avoided?$AA@ 0000000000022c58     LibString:ErrorList.obj
 0002:00000a18       ??_C@_0BH@DBCLIABC@Cannot?5allocate?5memory?$AA@ 0000000000022c78     LibString:ErrorList.obj
 0002:00000a30       ??_C@_0BC@HFNFNKAI@Permission?5denied?$AA@ 0000000000022c90     LibString:ErrorList.obj
 0002:00000a48       ??_C@_0M@LOEHLCJD@Bad?5address?$AA@ 0000000000022ca8     LibString:ErrorList.obj
 0002:00000a58       ??_C@_0BG@DDDDJJIM@Block?5device?5required?$AA@ 0000000000022cb8     LibString:ErrorList.obj
 0002:00000a70       ??_C@_0M@KEEOMFM@Device?5busy?$AA@ 0000000000022cd0     LibString:ErrorList.obj
 0002:00000a80       ??_C@_0M@NAAJNNGH@File?5exists?$AA@ 0000000000022ce0     LibString:ErrorList.obj
 0002:00000a90       ??_C@_0BC@OFBLDMPL@Cross?9device?5link?$AA@ 0000000000022cf0     LibString:ErrorList.obj
 0002:00000aa8       ??_C@_0CC@BGJGOOF@Operation?5not?5supported?5by?5devic@ 0000000000022d08     LibString:ErrorList.obj
 0002:00000ad0       ??_C@_0BA@CJBACOOL@Not?5a?5directory?$AA@ 0000000000022d30     LibString:ErrorList.obj
 0002:00000ae0       ??_C@_0P@NDHGCGKE@Is?5a?5directory?$AA@ 0000000000022d40     LibString:ErrorList.obj
 0002:00000af0       ??_C@_0BB@HMGGCEBG@Invalid?5argument?$AA@ 0000000000022d50     LibString:ErrorList.obj
 0002:00000b08       ??_C@_0BO@IIFBODJE@Too?5many?5open?5files?5in?5system?$AA@ 0000000000022d68     LibString:ErrorList.obj
 0002:00000b28       ??_C@_0BE@INBJMKGG@Too?5many?5open?5files?$AA@ 0000000000022d88     LibString:ErrorList.obj
 0002:00000b40       ??_C@_0BP@NAOGGPDI@Inappropriate?5ioctl?5for?5device?$AA@ 0000000000022da0     LibString:ErrorList.obj
 0002:00000b60       ??_C@_0P@HJGPGMF@Text?5file?5busy?$AA@ 0000000000022dc0     LibString:ErrorList.obj
 0002:00000b70       ??_C@_0P@LFMMIPAE@File?5too?5large?$AA@ 0000000000022dd0     LibString:ErrorList.obj
 0002:00000b80       ??_C@_0BI@FEALHKLD@No?5space?5left?5on?5device?$AA@ 0000000000022de0     LibString:ErrorList.obj
 0002:00000b98       ??_C@_0N@JPKNIBBK@Illegal?5seek?$AA@ 0000000000022df8     LibString:ErrorList.obj
 0002:00000ba8       ??_C@_0BF@JEDIFMJD@Read?9only?5filesystem?$AA@ 0000000000022e08     LibString:ErrorList.obj
 0002:00000bc0       ??_C@_0P@PKCJJLLM@Too?5many?5links?$AA@ 0000000000022e20     LibString:ErrorList.obj
 0002:00000bd0       ??_C@_0M@LHEPIIOM@Broken?5pipe?$AA@ 0000000000022e30     LibString:ErrorList.obj
 0002:00000be0       ??_C@_0CB@BNEAGFJG@Numerical?5argument?5out?5of?5domain@ 0000000000022e40     LibString:ErrorList.obj
 0002:00000c08       ??_C@_0BB@FCBJFCAJ@Result?5too?5large?$AA@ 0000000000022e68     LibString:ErrorList.obj
 0002:00000c20       ??_C@_0CB@EPFKGNAK@Resource?5temporarily?5unavailable@ 0000000000022e80     LibString:ErrorList.obj
 0002:00000c48       ??_C@_0BK@LBMNDGCG@Operation?5now?5in?5progress?$AA@ 0000000000022ea8     LibString:ErrorList.obj
 0002:00000c68       ??_C@_0BO@BMABNIPB@Operation?5already?5in?5progress?$AA@ 0000000000022ec8     LibString:ErrorList.obj
 0002:00000c88       ??_C@_0BP@MCCLAMPH@Socket?5operation?5on?5non?9socket?$AA@ 0000000000022ee8     LibString:ErrorList.obj
 0002:00000ca8       ??_C@_0BN@HFCIEIME@Destination?5address?5required?$AA@ 0000000000022f08     LibString:ErrorList.obj
 0002:00000cc8       ??_C@_0BB@NDAKHOCP@Message?5too?5long?$AA@ 0000000000022f28     LibString:ErrorList.obj
 0002:00000ce0       ??_C@_0BP@PDKJLOAE@Protocol?5wrong?5type?5for?5socket?$AA@ 0000000000022f40     LibString:ErrorList.obj
 0002:00000d00       ??_C@_0BH@HPHKDMA@Protocol?5not?5available?$AA@ 0000000000022f60     LibString:ErrorList.obj
 0002:00000d18       ??_C@_0BH@JNBKLLAJ@Protocol?5not?5supported?$AA@ 0000000000022f78     LibString:ErrorList.obj
 0002:00000d30       ??_C@_0BK@LMAIHBL@Socket?5type?5not?5supported?$AA@ 0000000000022f90     LibString:ErrorList.obj
 0002:00000d50       ??_C@_0BI@EDJAHLMH@Operation?5not?5supported?$AA@ 0000000000022fb0     LibString:ErrorList.obj
 0002:00000d68       ??_C@_0BO@EBCCBLCJ@Protocol?5family?5not?5supported?$AA@ 0000000000022fc8     LibString:ErrorList.obj
 0002:00000d88       ??_C@_0DA@KDGLCJJO@Address?5family?5not?5supported?5by?5@ 0000000000022fe8     LibString:ErrorList.obj
 0002:00000db8       ??_C@_0BH@LOKACPE@Address?5already?5in?5use?$AA@ 0000000000023018     LibString:ErrorList.obj
 0002:00000dd0       ??_C@_0BP@OKMOKAIP@Can?8t?5assign?5requested?5address?$AA@ 0000000000023030     LibString:ErrorList.obj
 0002:00000df0       ??_C@_0BA@LPIEBGEK@Network?5is?5down?$AA@ 0000000000023050     LibString:ErrorList.obj
 0002:00000e00       ??_C@_0BH@CIEOBPFM@Network?5is?5unreachable?$AA@ 0000000000023060     LibString:ErrorList.obj
 0002:00000e18       ??_C@_0CE@JHDCOCF@Network?5dropped?5connection?5on?5re@ 0000000000023078     LibString:ErrorList.obj
 0002:00000e40       ??_C@_0CB@DJAOADN@Software?5caused?5connection?5abort@ 00000000000230a0     LibString:ErrorList.obj
 0002:00000e68       ??_C@_0BJ@FJAMCHKE@Connection?5reset?5by?5peer?$AA@ 00000000000230c8     LibString:ErrorList.obj
 0002:00000e88       ??_C@_0BK@OCAHGMEA@No?5buffer?5space?5available?$AA@ 00000000000230e8     LibString:ErrorList.obj
 0002:00000ea8       ??_C@_0BM@CCONNCKE@Socket?5is?5already?5connected?$AA@ 0000000000023108     LibString:ErrorList.obj
 0002:00000ec8       ??_C@_0BI@ILAOGBJJ@Socket?5is?5not?5connected?$AA@ 0000000000023128     LibString:ErrorList.obj
 0002:00000ee0       ??_C@_0CB@IOOOMFJJ@Can?8t?5send?5after?5socket?5shutdown@ 0000000000023140     LibString:ErrorList.obj
 0002:00000f08       ??_C@_0CC@HOLLLFLE@Too?5many?5references?3?5can?8t?5splic@ 0000000000023168     LibString:ErrorList.obj
 0002:00000f30       ??_C@_0BE@JAEOFJAL@Operation?5timed?5out?$AA@ 0000000000023190     LibString:ErrorList.obj
 0002:00000f48       ??_C@_0BD@NPDMPPFP@Connection?5refused?$AA@ 00000000000231a8     LibString:ErrorList.obj
 0002:00000f60       ??_C@_0CC@CPDHMANB@Too?5many?5levels?5of?5symbolic?5link@ 00000000000231c0     LibString:ErrorList.obj
 0002:00000f88       ??_C@_0BD@CGPKCNP@File?5name?5too?5long?$AA@ 00000000000231e8     LibString:ErrorList.obj
 0002:00000fa0       ??_C@_0N@OHOPOBEF@Host?5is?5down?$AA@ 0000000000023200     LibString:ErrorList.obj
 0002:00000fb0       ??_C@_0BB@PFBILCPA@No?5route?5to?5host?$AA@ 0000000000023210     LibString:ErrorList.obj
 0002:00000fc8       ??_C@_0BE@ICMCHPHH@Directory?5not?5empty?$AA@ 0000000000023228     LibString:ErrorList.obj
 0002:00000fe0       ??_C@_0BD@LPHIGPM@Too?5many?5processes?$AA@ 0000000000023240     LibString:ErrorList.obj
 0002:00000ff8       ??_C@_0P@DAFGFIDC@Too?5many?5users?$AA@ 0000000000023258     LibString:ErrorList.obj
 0002:00001008       ??_C@_0BE@KMAIMPL@Disc?5quota?5exceeded?$AA@ 0000000000023268     LibString:ErrorList.obj
 0002:00001020       ??_C@_0BG@KNCBNNDC@Stale?5NFS?5file?5handle?$AA@ 0000000000023280     LibString:ErrorList.obj
 0002:00001038       ??_C@_0CC@DBGGHIAG@Too?5many?5levels?5of?5remote?5in?5pat@ 0000000000023298     LibString:ErrorList.obj
 0002:00001060       ??_C@_0BC@ICCGLAJN@RPC?5struct?5is?5bad?$AA@ 00000000000232c0     LibString:ErrorList.obj
 0002:00001078       ??_C@_0BC@FIMLNFGC@RPC?5version?5wrong?$AA@ 00000000000232d8     LibString:ErrorList.obj
 0002:00001090       ??_C@_0BE@HDGMLIGJ@RPC?5prog?4?5not?5avail?$AA@ 00000000000232f0     LibString:ErrorList.obj
 0002:000010a8       ??_C@_0BG@JOMPHNJI@Program?5version?5wrong?$AA@ 0000000000023308     LibString:ErrorList.obj
 0002:000010c0       ??_C@_0BK@LKNMDCLJ@Bad?5procedure?5for?5program?$AA@ 0000000000023320     LibString:ErrorList.obj
 0002:000010e0       ??_C@_0BD@CLHBCGPB@No?5locks?5available?$AA@ 0000000000023340     LibString:ErrorList.obj
 0002:000010f8       ??_C@_0BJ@IHEHINLI@Function?5not?5implemented?$AA@ 0000000000023358     LibString:ErrorList.obj
 0002:00001118       ??_C@_0CC@GLJPLFOJ@Inappropriate?5file?5type?5or?5forma@ 0000000000023378     LibString:ErrorList.obj
 0002:00001140       ??_C@_0BF@MOMJDFNI@Authentication?5error?$AA@ 00000000000233a0     LibString:ErrorList.obj
 0002:00001158       ??_C@_0BD@GDKJMNEO@Need?5authenticator?$AA@ 00000000000233b8     LibString:ErrorList.obj
 0002:00001170       ??_C@_0BD@LJPFLIMC@Identifier?5removed?$AA@ 00000000000233d0     LibString:ErrorList.obj
 0002:00001188       ??_C@_0BL@LAELPFGP@No?5message?5of?5desired?5type?$AA@ 00000000000233e8     LibString:ErrorList.obj
 0002:000011a8       ??_C@_0CK@NDEHDADK@Value?5too?5large?5to?5be?5stored?5in?5@ 0000000000023408     LibString:ErrorList.obj
 0002:000011d8       ??_C@_0BG@KLEAJEFJ@Illegal?5byte?5sequence?$AA@ 0000000000023438     LibString:ErrorList.obj
 0002:000011f0       ??_C@_0N@JIEBMMEB@Bad?5errno?586?$AA@ 0000000000023450     LibString:ErrorList.obj
 0002:00001200       ??_C@_0BD@OIDFIKFE@Operation?5canceled?$AA@ 0000000000023460     LibString:ErrorList.obj
 0002:00001218       ??_C@_0M@OEPJJONH@Bad?5message?$AA@ 0000000000023478     LibString:ErrorList.obj
 0002:00001228       ??_C@_0BF@GGKONPHM@No?5message?5available?$AA@ 0000000000023488     LibString:ErrorList.obj
 0002:00001240       ??_C@_0BE@HNNMKAI@No?5STREAM?5resources?$AA@ 00000000000234a0     LibString:ErrorList.obj
 0002:00001258       ??_C@_0N@BFKFJNP@Not?5a?5STREAM?$AA@ 00000000000234b8     LibString:ErrorList.obj
 0002:00001268       ??_C@_0BF@BKBOOGBB@STREAM?5ioctl?5timeout?$AA@ 00000000000234c8     LibString:ErrorList.obj
 0002:00001280       ??_C@_0BE@BOJAKOGO@Attribute?5not?5found?$AA@ 00000000000234e0     LibString:ErrorList.obj
 0002:00001298       ??_C@_0BC@MPFABHFK@Programming?5error?$AA@ 00000000000234f8     LibString:ErrorList.obj
 0002:000012b0       ??_C@_0BD@BLOHNAGF@Multihop?5attempted?$AA@ 0000000000023510     LibString:ErrorList.obj
 0002:000012c8       ??_C@_0BG@JIGCCAHA@Link?5has?5been?5severed?$AA@ 0000000000023528     LibString:ErrorList.obj
 0002:000012e0       ??_C@_0P@NFDLBHIK@Protocol?5error?$AA@ 0000000000023540     LibString:ErrorList.obj
 0002:000012f0       ??_C@_0CA@JBGHAFDD@Buffer?5too?5small?5to?5hold?5result?$AA@ 0000000000023550     LibString:ErrorList.obj
 0002:00001310       ??_C@_0CO@BCOPOIDC@System?5Error?5list?5and?5errno?4h?5ar@ 0000000000023570     LibString:ErrorList.obj
 0002:00001340       ??_C@_0DG@MFCDKOLN@g?3?2uefi_edk2_practice?2MdePkg?2Lib@ 00000000000235a0     BaseLib:String.obj
 0002:00001378       ??_C@_0CI@LLKACKFD@?$CI?$CIUINTN?$CJ?5Destination?5?$CG?50x0000000@ 00000000000235d8     BaseLib:String.obj
 0002:000013a0       ??_C@_0DA@MIOLHJCL@?$CIUINTN?$CJ?$CIDestination?5?9?5Source?$CJ?5?$DO?5@ 0000000000023600     BaseLib:String.obj
 0002:000013d0       ??_C@_0CI@FOLEBOJ@?$CIUINTN?$CJ?$CISource?5?9?5Destination?$CJ?5?$DO?$DN@ 0000000000023630     BaseLib:String.obj
 0002:000013f8       ??_C@_0DL@LFIMEMJP@Length?5?$DM?$DN?5_gPcd_FixedAtBuild_Pcd@ 0000000000023658     BaseLib:String.obj
 0002:00001438       ??_C@_0CD@BDCLIGHD@?$CI?$CIUINTN?$CJ?5String?5?$CG?50x00000001?$CJ?5?$DN?$DN@ 0000000000023698     BaseLib:String.obj
 0002:00001460       ??_C@_0DK@EOJCOAME@Length?5?$DM?5_gPcd_FixedAtBuild_PcdM@ 00000000000236c0     BaseLib:String.obj
 0002:000014a0       ??_C@_0BL@JAAMOCAJ@StrSize?5?$CIFirstString?$CJ?5?$CB?$DN?50?$AA@ 0000000000023700     BaseLib:String.obj
 0002:000014c0       ??_C@_0BM@DALBOILC@StrSize?5?$CISecondString?$CJ?5?$CB?$DN?50?$AA@ 0000000000023720     BaseLib:String.obj
 0002:000014e0       ??_C@_0BL@NAIOOBPB@StrSize?5?$CIDestination?$CJ?5?$CB?$DN?50?$AA@ 0000000000023740     BaseLib:String.obj
 0002:00001500       ??_C@_0BG@KBNOLIGE@StrSize?5?$CIString?$CJ?5?$CB?$DN?50?$AA@ 0000000000023760     BaseLib:String.obj
 0002:00001518       ??_C@_0BM@NNBLOHJD@StrSize?5?$CISearchString?$CJ?5?$CB?$DN?50?$AA@ 0000000000023778     BaseLib:String.obj
 0002:00001538       ??_C@_0BG@JJELHOCA@StrSize?5?$CISource?$CJ?5?$CB?$DN?50?$AA@ 0000000000023798     BaseLib:String.obj
 0002:00001550       ??_C@_0DN@HIFCOCOI@?$CIUINTN?$CJ?5?$CIDestination?5?9?5?$CICHAR8?5?$CK?$CJ@ 00000000000237b0     BaseLib:String.obj
 0002:00001590       ??_C@_0DL@LACPINOG@?$CIUINTN?$CJ?5?$CI?$CICHAR8?5?$CK?$CJ?5Source?5?9?5Dest@ 00000000000237f0     BaseLib:String.obj
 0002:000015d0       ??_C@_0BA@MFHLDCJH@?$CKSource?5?$DM?50x100?$AA@ 0000000000023830     BaseLib:String.obj
 0002:000015e0       ??_C@_0CA@FFIBMAAF@AsciiStrSize?5?$CIReturnValue?$CJ?5?$CB?$DN?50?$AA@ 0000000000023840     BaseLib:String.obj
 0002:00001600       ??_C@_0DF@CDKFFDDI@?$CIUINTN?$CJ?$CIDestination?5?9?5Source?$CJ?5?$DO?5@ 0000000000023860     BaseLib:String.obj
 0002:00001638       ??_C@_0DJ@JJHGIFMP@Length?5?$DM?$DN?5_gPcd_FixedAtBuild_Pcd@ 0000000000023898     BaseLib:String.obj
 0002:00001678       ??_C@_0DI@MDIKFADO@Length?5?$DM?5_gPcd_FixedAtBuild_PcdM@ 00000000000238d8     BaseLib:String.obj
 0002:000016b0       ??_C@_0BL@IKFBNFIL@AsciiStrSize?5?$CIFirstString?$CJ?$AA@ 0000000000023910     BaseLib:String.obj
 0002:000016d0       ??_C@_0BM@EDNOKLLE@AsciiStrSize?5?$CISecondString?$CJ?$AA@ 0000000000023930     BaseLib:String.obj
 0002:000016f0       ??_C@_0BL@NNBEMOEP@AsciiStrSize?5?$CISource?$CJ?5?$CB?$DN?50?$AA@ 0000000000023950     BaseLib:String.obj
 0002:00001710       ??_C@_0EA@ELKIMFNG@?$CIUINTN?$CJ?5?$CI?$CICHAR8?5?$CK?$CJ?5Destination?5?9@ 0000000000023970     BaseLib:String.obj
 0002:00001750       ??_C@_0FG@JICIAIMJ@?$CIUINTN?$CJ?5?$CISource?5?9?5?$CICHAR8?5?$CK?$CJ?5Dest@ 00000000000239b0     BaseLib:String.obj
 0002:000017a8       ??_C@_0BL@KAGEINIP@StrSize?5?$CIReturnValue?$CJ?5?$CB?$DN?50?$AA@ 0000000000023a08     BaseLib:String.obj
 0002:000017c8       ??_C@_0DJ@DIJFAOJH@g?3?2uefi_edk2_practice?2MdePkg?2Lib@ 0000000000023a28     BaseLib:Unaligned.obj
 0002:00001808       ??_C@_0N@KGHEHMDL@Divisor?5?$CB?$DN?50?$AA@ 0000000000023a68     BaseLib:DivU64x32.obj
 0002:00001818       ??_C@_0DK@GNKFIOKI@g?3?2uefi_edk2_practice?2MdePkg?2Lib@ 0000000000023a78     BaseLib:SafeString.obj
 0002:00001858       ??_C@_0BF@NJNGJMPC@List?5?$CB?$DN?5?$CI?$CIvoid?5?$CK?$CJ?50?$CJ?$AA@ 0000000000023ab8     BaseLib:LinkedList.obj
 0002:00001870       ??_C@_0DK@FPMEKHHB@g?3?2uefi_edk2_practice?2MdePkg?2Lib@ 0000000000023ad0     BaseLib:LinkedList.obj
 0002:000018b0       ??_C@_0CC@KDLPLAED@List?9?$DOForwardLink?5?$CB?$DN?5?$CI?$CIvoid?5?$CK?$CJ?50@ 0000000000023b10     BaseLib:LinkedList.obj
 0002:000018d8       ??_C@_0BP@IJJCCMAK@List?9?$DOBackLink?5?$CB?$DN?5?$CI?$CIvoid?5?$CK?$CJ?50?$CJ?$AA@ 0000000000023b38     BaseLib:LinkedList.obj
 0002:000018f8       ??_C@_0CI@BMHOPIIO@InternalBaseLibIsListValid?5?$CIFirs@ 0000000000023b58     BaseLib:LinkedList.obj
 0002:00001920       ??_C@_0BM@BAIHHOEP@SecondEntry?5?$CB?$DN?5?$CI?$CIvoid?5?$CK?$CJ?50?$CJ?$AA@ 0000000000023b80     BaseLib:LinkedList.obj
 0002:00001940       ??_C@_0DI@HOMAKAJD@?$CI?$CIBOOLEAN?$CJ?$CI0?$DN?$DN1?$CJ?$CJ?5?$DN?$DN?5IsNodeInLis@ 0000000000023ba0     BaseLib:LinkedList.obj
 0002:00001978       ??_C@_0CG@LGIALJFK@InternalBaseLibIsListValid?5?$CIList@ 0000000000023bd8     BaseLib:LinkedList.obj
 0002:000019a0       ??_C@_0CC@JLDICICM@InternalBaseLibIsListValid?5?$CIList@ 0000000000023c00     BaseLib:LinkedList.obj
 0002:000019c8       ??_C@_0DD@OAAIDOJD@?$CI?$CIBOOLEAN?$CJ?$CI1?$DN?$DN1?$CJ?$CJ?5?$DN?$DN?5IsNodeInLis@ 0000000000023c28     BaseLib:LinkedList.obj
 0002:00001a00       ??_C@_0BF@NMBJJECB@?$CBIsListEmpty?5?$CIEntry?$CJ?$AA@ 0000000000023c60     BaseLib:LinkedList.obj
 0002:00001a18       ??_C@_17CECJBCED@?$AA?2?$AA?4?$AA?2?$AA?$AA@ 0000000000023c78     BaseLib:FilePaths.obj
 0002:00001a20       ??_C@_15HFJMEONN@?$AA?2?$AA?4?$AA?$AA@ 0000000000023c80     BaseLib:FilePaths.obj
 0002:00001a28       ??_C@_17OFBPHKFE@?$AA?2?$AA?4?$AA?4?$AA?$AA@ 0000000000023c88     BaseLib:FilePaths.obj
 0002:00001a30       ??_C@_15LEKKCGMK@?$AA?2?$AA?2?$AA?$AA@ 0000000000023c90     BaseLib:FilePaths.obj
 0002:00001a38       ??_C@_0L@MEMPDLHB@Count?5?$DM?564?$AA@ 0000000000023c98     BaseLib:LShiftU64.obj
 0002:00001a48       ??_C@_0DJ@KJENGIEM@g?3?2uefi_edk2_practice?2MdePkg?2Lib@ 0000000000023ca8     BaseLib:LShiftU64.obj
 0002:00001a90       ??_C@_0EC@LJCGBENK@g?3?2uefi_edk2_practice?2MdePkg?2Lib@ 0000000000023cf0     BaseLib:DivU64x32Remainder.obj
 0002:00001ad8       ??_C@_0BL@CPGKAMND@JumpBuffer?5?$CB?$DN?5?$CI?$CIvoid?5?$CK?$CJ?50?$CJ?$AA@ 0000000000023d38     BaseLib:SetJump.obj
 0002:00001af8       ??_C@_0DH@IHFCELE@g?3?2uefi_edk2_practice?2MdePkg?2Lib@ 0000000000023d58     BaseLib:SetJump.obj
 0002:00001b30       ??_C@_0CD@OEHNCIHG@?$CI?$CIUINTN?$CJJumpBuffer?5?$CG?5?$CI8?5?9?51?$CJ?$CJ?5?$DN?$DN@ 0000000000023d90     BaseLib:SetJump.obj
 0002:00001b60       ??_C@_0ED@MKGCMJG@?$CILength?5?9?51?$CJ?5?$DM?$DN?5?$CI0xFFFFFFFFFFFFF@ 0000000000023dc0     BaseMemoryLib:CopyMemWrapper.obj
 0002:00001bb0       ??_C@_0EE@COAMBEJJ@g?3?2uefi_edk2_practice?2MdePkg?2Lib@ 0000000000023e10     BaseMemoryLib:CopyMemWrapper.obj
 0002:00001bf8       ??_C@_0DO@MAOBOFEG@?$CILength?5?9?51?$CJ?5?$DM?$DN?5?$CI0xFFFFFFFFFFFFF@ 0000000000023e58     BaseMemoryLib:CopyMemWrapper.obj
 0002:00001c38       ??_C@_0DG@EEENIGGL@Length?5?$DM?$DN?5?$CI0xFFFFFFFFFFFFFFFFULL@ 0000000000023e98     BaseMemoryLib:MemLibGuid.obj
 0002:00001c70       ??_C@_0EE@JKKOHFFO@g?3?2uefi_edk2_practice?2MdePkg?2Lib@ 0000000000023ed0     BaseMemoryLib:ZeroMemWrapper.obj
 0002:00001cb8       ??_C@_0DI@DAGDPLPG@?$CILength?5?9?51?$CJ?5?$DM?$DN?5?$CI0xFFFFFFFFFFFFF@ 0000000000023f18     BaseMemoryLib:SetMemWrapper.obj
 0002:00001cf0       ??_C@_0ED@FGINMKBB@g?3?2uefi_edk2_practice?2MdePkg?2Lib@ 0000000000023f50     BaseMemoryLib:SetMemWrapper.obj
 0002:00001d38       ??_C@_0CO@LECKNDNC@?$CI?$CI?$CIUINTN?$CJBuffer?$CJ?5?$CG?5?$CIsizeof?5?$CIValu@ 0000000000023f98     BaseMemoryLib:SetMem64Wrapper.obj
 0002:00001d68       ??_C@_0CF@LEICOABD@?$CILength?5?$CG?5?$CIsizeof?5?$CIValue?$CJ?5?9?51?$CJ?$CJ?5@ 0000000000023fc8     BaseMemoryLib:SetMem64Wrapper.obj
 0002:00001d90       ??_C@_0L@KDHIOLNB@Value?5?$CB?$DN?50?$AA@ 0000000000023ff0     BaseLib:LongJump.obj
 0002:00001da0       ??_C@_0DI@IJCLEFAF@g?3?2uefi_edk2_practice?2MdePkg?2Lib@ 0000000000024000     BaseLib:LongJump.obj
 0002:00001de0       ??_C@_0EF@LBDHAOLE@g?3?2uefi_edk2_practice?2MdePkg?2Lib@ 0000000000024040     BaseMemoryLib:SetMem16Wrapper.obj
 0002:00001e30       ??_C@_0EF@NMPMIHNL@g?3?2uefi_edk2_practice?2MdePkg?2Lib@ 0000000000024090     BaseMemoryLib:ScanMem8Wrapper.obj
 0002:00001e80       _C_CharClassTable          00000000000240e0     LibCtype:iCtype.obj
 0002:00001f80       ??_C@_0CB@DMEJJJHA@?6ASSERT_EFI_ERROR?5?$CIStatus?5?$DN?5?$CFr?$CJ?6@ 00000000000241e0     WebServer:AutoGen.obj
 0002:00001fa8       ??_C@_0BE@DCHLEIGN@?$CBEFI_ERROR?5?$CIStatus?$CJ?$AA@ 0000000000024208     WebServer:AutoGen.obj
 0002:00001fc0       ??_C@_0HJ@PLGEKNFN@g?3?2uefi_edk2_practice?2Build?2AppP@ 0000000000024220     WebServer:AutoGen.obj
 0002:0000203c       _gPcd_FixedAtBuild_PcdMaximumLinkedListLength 000000000002429c     WebServer:AutoGen.obj
 0002:00002040       _gPcd_FixedAtBuild_PcdMaximumUnicodeStringLength 00000000000242a0     WebServer:AutoGen.obj
 0002:00002044       _gPcd_FixedAtBuild_PcdMaximumAsciiStringLength 00000000000242a4     WebServer:AutoGen.obj
 0002:00002048       _gPcd_FixedAtBuild_WebServer_HttpPort 00000000000242a8     WebServer:AutoGen.obj
 0002:0000204a       _gPcd_FixedAtBuild_PcdVerifyNodeInList 00000000000242aa     WebServer:AutoGen.obj
 0002:0000204c       ??_C@_06GCNMPELH@stdin?3?$AA@ 00000000000242ac     LibC:Main.obj
 0002:00002058       ??_C@_07CJCKBFG@stdout?3?$AA@ 00000000000242b8     LibC:Main.obj
 0002:00002060       ??_C@_07NBHIPNPM@stderr?3?$AA@ 00000000000242c0     LibC:Main.obj
 0002:00002070       ??_C@_1FI@OEFNJEF@?$AAE?$AAR?$AAR?$AAO?$AAR?$AA?5?$AAI?$AAn?$AAi?$AAt?$AAi?$AAa?$AAl?$AAi?$AAz?$AAi?$AAn?$AAg?$AA?5?$AAS?$AAt?$AAa?$AAn?$AAd?$AAa?$AAr?$AAd?$AA?5?$AAI?$AAO?$AA?3?$AA?5@ 00000000000242d0     LibC:Main.obj
 0002:000020c8       ??_C@_0BH@IACGKAP@Buffer?5?$CB?$DN?5?$CI?$CIvoid?5?$CK?$CJ?50?$CJ?$AA@ 0000000000024328     UefiLib:UefiLibPrint.obj
 0002:000020e0       ??_C@_1O@CFMGMDFI@?$AAs?$AAt?$AAd?$AAi?$AAn?$AA?3?$AA?$AA@ 0000000000024340     DevConsole:daConsole.obj
 0002:000020f0       ??_C@_1BA@PGAEEPHD@?$AAs?$AAt?$AAd?$AAo?$AAu?$AAt?$AA?3?$AA?$AA@ 0000000000024350     DevConsole:daConsole.obj
 0002:00002100       ??_C@_1BA@DNLKDFLO@?$AAs?$AAt?$AAd?$AAe?$AAr?$AAr?$AA?3?$AA?$AA@ 0000000000024360     DevConsole:daConsole.obj
 0002:00002138       ??_C@_17CLELIOII@?$AAN?$AAU?$AAL?$AA?$AA@ 0000000000024398     UefiShellLib:UefiShellLib.obj
 0002:00002140       ??_C@_19CIJIHAKK@?$AAN?$AAU?$AAL?$AAL?$AA?$AA@ 00000000000243a0     UefiShellLib:UefiShellLib.obj
 0002:00002150       ??_C@_0BM@NLNKOJGD@Destination?5?$CB?$DN?5?$CI?$CIvoid?5?$CK?$CJ?50?$CJ?$AA@ 00000000000243b0     UefiShellLib:UefiShellLib.obj
 0002:00002170       mEslUdp4ServiceGuid        00000000000243d0     EfiSocketLib:UseEfiSocketLib.obj
 0002:00002180       mEfiServiceBinding         00000000000243e0     EfiSocketLib:UseEfiSocketLib.obj
 0002:00002190       mEslUdp6ServiceGuid        00000000000243f0     EfiSocketLib:UseEfiSocketLib.obj
 0002:000021a0       mEslTcp4ServiceGuid        0000000000024400     EfiSocketLib:UseEfiSocketLib.obj
 0002:000021b0       mEslTcp6ServiceGuid        0000000000024410     EfiSocketLib:UseEfiSocketLib.obj
 0002:000021c0       mEslIp4ServiceGuid         0000000000024420     EfiSocketLib:UseEfiSocketLib.obj
 0002:000021d0       cEslSocketBinding          0000000000024430     EfiSocketLib:Socket.obj
 0002:00002310       ??_C@_17NIGEJLGH@?$AAI?$AAp?$AA4?$AA?$AA@ 0000000000024570     EfiSocketLib:Socket.obj
 0002:00002318       ??_C@_19IGIFHENE@?$AAT?$AAc?$AAp?$AA4?$AA?$AA@ 0000000000024578     EfiSocketLib:Socket.obj
 0002:00002328       ??_C@_19CMIMLMFP@?$AAT?$AAc?$AAp?$AA6?$AA?$AA@ 0000000000024588     EfiSocketLib:Socket.obj
 0002:00002338       ??_C@_19GDICBGPD@?$AAU?$AAd?$AAp?$AA4?$AA?$AA@ 0000000000024598     EfiSocketLib:Socket.obj
 0002:00002348       ??_C@_19MJILNOHI@?$AAU?$AAd?$AAp?$AA6?$AA?$AA@ 00000000000245a8     EfiSocketLib:Socket.obj
 0002:00002358       ??_C@_0BG@FEICDNJM@Entering?5SocketPoll?$AN?6?$AA@ 00000000000245b8     EfiSocketLib:Socket.obj
 0002:00002370       cEslTcp6Api                00000000000245d0     EfiSocketLib:Tcp6.obj
 0002:00002478       ??_C@_05NEBMLMBB@TCPv6?$AA@ 00000000000246d8     EfiSocketLib:Tcp6.obj
 0002:00002480       cEslIp4Api                 00000000000246e0     EfiSocketLib:Ip4.obj
 0002:00002588       ??_C@_04EMGFNKGN@IPv4?$AA@ 00000000000247e8     EfiSocketLib:Ip4.obj
 0002:00002590       cEslTcp4Api                00000000000247f0     EfiSocketLib:Tcp4.obj
 0002:00002698       ??_C@_05OGCKNOJD@TCPv4?$AA@ 00000000000248f8     EfiSocketLib:Tcp4.obj
 0002:000026a0       cEslUdp4Api                0000000000024900     EfiSocketLib:Udp4.obj
 0002:000027a8       ??_C@_05JPFGNBCG@UDPv4?$AA@ 0000000000024a08     EfiSocketLib:Udp4.obj
 0002:000027b0       cEslUdp6Api                0000000000024a10     EfiSocketLib:Udp6.obj
 0002:000028b8       ??_C@_05KNGALDKE@UDPv6?$AA@ 0000000000024b18     EfiSocketLib:Udp6.obj
 0002:000028c0       ??_C@_0BC@PDBPFBH@Entering?5PortAdd?6?$AA@ 0000000000024b20     WebServer:WebServer.obj
 0002:000028d8       ??_C@_0DF@DJCPPPBM@ERROR?5?9?5Failed?5to?5allocate?5the?5F@ 0000000000024b38     WebServer:WebServer.obj
 0002:00002910       ??_C@_0DH@CNCFOODJ@ERROR?5?9?5Failed?5to?5allocate?5the?5p@ 0000000000024b70     WebServer:WebServer.obj
 0002:00002948       ??_C@_0DC@EHOOAGC@ERROR?5?9?5Failed?5to?5allocate?5the?5p@ 0000000000024ba8     WebServer:WebServer.obj
 0002:00002980       ??_C@_0BO@PGMNCKBN@WebServer?5handling?5?$CFd?5ports?$AN?6?$AA@ 0000000000024be0     WebServer:WebServer.obj
 0002:000029a0       ??_C@_0BN@DLHFDMKL@Exiting?5PortAdd?0?5Status?3?5?$CFr?6?$AA@ 0000000000024c00     WebServer:WebServer.obj
 0002:000029c0       ??_C@_0BF@PJEFCKLA@Entering?5PortRemove?6?$AA@ 0000000000024c20     WebServer:WebServer.obj
 0002:000029d8       ??_C@_0BE@LNNMKLHE@Exiting?5PortRemove?6?$AA@ 0000000000024c38     WebServer:WebServer.obj
 0002:000029f0       ??_C@_0BE@DIJAFNJO@Entering?5PortWork?$AN?6?$AA@ 0000000000024c50     WebServer:WebServer.obj
 0002:00002a08       ??_C@_0DE@IJMPAMAD@ERROR?5?9?5Failed?5to?5add?5the?5port?50@ 0000000000024c68     WebServer:WebServer.obj
 0002:00002a40       ??_C@_0CA@FLAFKMOL@ERROR?5?9?5Socket?5not?5available?$CB?$AN?6?$AA@ 0000000000024ca0     WebServer:WebServer.obj
 0002:00002a60       ??_C@_0DJ@LNBAMKJN@ERROR?5?9?5Failed?5to?5accept?5new?5con@ 0000000000024cc0     WebServer:WebServer.obj
 0002:00002aa0       ??_C@_0DF@GHCLCIMA@0x?$CF08x?3?5Socket?5?9?5Received?5?$CFd?5byt@ 0000000000024d00     WebServer:WebServer.obj
 0002:00002ad8       ??_C@_0DC@PLCAAJND@0x?$CF08x?3?5Socket?5?9?5Received?5?$CFd?5byt@ 0000000000024d38     WebServer:WebServer.obj
 0002:00002b10       ??_C@_0BP@MLDNLINP@Exiting?5PortWork?0?5Status?3?5?$CFr?$AN?6?$AA@ 0000000000024d70     WebServer:WebServer.obj
 0002:00002b30       ??_C@_0BE@PNMAENOA@ERROR?5?9?5errno?3?5?$CFd?$AN?6?$AA@ 0000000000024d90     WebServer:WebServer.obj
 0002:00002b48       ??_C@_0BF@MIMPKCLE@Exiting?5SocketPoll?$AN?6?$AA@ 0000000000024da8     WebServer:WebServer.obj
 0002:00002b60       ??_C@_0BL@HFDNPEEI@Entering?5WebServerListen?$AN?6?$AA@ 0000000000024dc0     WebServer:WebServer.obj
 0002:00002b80       ??_C@_0BI@DPMIBOHE@Listening?5on?5Tcp?$CFd?3?$CFd?$AN?6?$AA@ 0000000000024de0     WebServer:WebServer.obj
 0002:00002b98       ??_C@_0BK@MEBJLKPK@Exiting?5WebServerListen?$AN?6?$AA@ 0000000000024df8     WebServer:WebServer.obj
 0002:00002bb8       ??_C@_0BA@IPCAEGHC@HTTP?5Port?3?5?$CFd?$AN?6?$AA@ 0000000000024e18     WebServer:WebServer.obj
 0002:00002bc8       ??_C@_0BK@BBENEJKL@Exiting?5main?0?5Status?3?5?$CFr?6?$AA@ 0000000000024e28     WebServer:WebServer.obj
 0002:00002be8       ??_C@_0BE@CKBHDKAA@Entering?5HttpFlush?6?$AA@ 0000000000024e48     WebServer:HTTP.obj
 0002:00002c00       ??_C@_0BP@LMPEPNDP@Exiting?5HttpFlush?0?5Status?3?5?$CFr?6?$AA@ 0000000000024e60     WebServer:HTTP.obj
 0002:00002c20       ??_C@_0BJ@LHFEAOIA@Entering?5HttpPageHeader?6?$AA@ 0000000000024e80     WebServer:HTTP.obj
 0002:00002c40       ??_C@_0GJ@IMCMCPIG@?$DM?$CBDOCTYPE?5HTML?5PUBLIC?5?$CC?9?1?1W3C?1?1D@ 0000000000024ea0     WebServer:HTTP.obj
 0002:00002cb0       ??_C@_0BG@LLKBGKPE@?$DMhtml?5lang?$DN?$CCen?9US?$CC?$DO?$AN?6?$AA@ 0000000000024f10     WebServer:HTTP.obj
 0002:00002cc8       ??_C@_0L@COFNAKH@?5?5?$DMhead?$DO?$AN?6?$AA@ 0000000000024f28     WebServer:HTTP.obj
 0002:00002cd8       ??_C@_0M@EAOOBMFG@?5?5?5?5?$DMtitle?$DO?$AA@ 0000000000024f38     WebServer:HTTP.obj
 0002:00002ce8       ??_C@_0L@LOLFNBLD@?$DM?1title?$DO?$AN?6?$AA@ 0000000000024f48     WebServer:HTTP.obj
 0002:00002cf8       ??_C@_0M@KCFJGDAO@?5?5?$DM?1head?$DO?$AN?6?$AA@ 0000000000024f58     WebServer:HTTP.obj
 0002:00002d08       ??_C@_0L@PPOIFBKB@?5?5?$DMbody?$DO?$AN?6?$AA@ 0000000000024f68     WebServer:HTTP.obj
 0002:00002d18       ??_C@_0CE@LOOMBNBN@Exiting?5HttpPageHeader?0?5Status?3?5@ 0000000000024f78     WebServer:HTTP.obj
 0002:00002d40       ??_C@_0BL@DKLMPLGP@Entering?5HttpPageNotFound?6?$AA@ 0000000000024fa0     WebServer:HTTP.obj
 0002:00002d60       ??_C@_1BM@GPBFGPJA@?$AA4?$AA0?$AA4?$AA?5?$AAN?$AAo?$AAt?$AA?5?$AAf?$AAo?$AAu?$AAn?$AAd?$AA?$AA@ 0000000000024fc0     WebServer:HTTP.obj
 0002:00002d80       ??_C@_0DI@KMMKAOAE@ERROR?5?$DMb?$DO404?$DM?1b?$DO?$DMbr?5?1?$DORequested?5@ 0000000000024fe0     WebServer:HTTP.obj
 0002:00002db8       ??_C@_0CG@KNHJMJPI@Exiting?5HttpPageNotFound?0?5Status@ 0000000000025018     WebServer:HTTP.obj
 0002:00002de0       ??_C@_0BK@NMIJBJC@Entering?5HttpPageTrailer?6?$AA@ 0000000000025040     WebServer:HTTP.obj
 0002:00002e00       ??_C@_0P@CPLHHGPG@?5?5?$DMhr?$DO?$AN?6?$DMcode?$DO?$AA@ 0000000000025060     WebServer:HTTP.obj
 0002:00002e10       ??_C@_07JDEIGLNB@?5?5?9?9?$DO?5?5?$AA@ 0000000000025070     WebServer:HTTP.obj
 0002:00002e18       ??_C@_09DABMGCCD@?$DM?1code?$DO?$AN?6?$AA@ 0000000000025078     WebServer:HTTP.obj
 0002:00002e28       ??_C@_0M@FPFEOCAI@?5?5?$DM?1body?$DO?$AN?6?$AA@ 0000000000025088     WebServer:HTTP.obj
 0002:00002e38       ??_C@_0M@CEECHPMO@?5?5?$DM?1html?$DO?$AN?6?$AA@ 0000000000025098     WebServer:HTTP.obj
 0002:00002e48       ??_C@_0CF@DHEFBHGG@Exiting?5HttpPageTrailer?0?5Status?3@ 00000000000250a8     WebServer:HTTP.obj
 0002:00002e70       ??_C@_0BG@ENMJDPFM@Entering?5HttpRequest?6?$AA@ 00000000000250d0     WebServer:HTTP.obj
 0002:00002e88       ??_C@_17KCHPOIEI@?$AAG?$AAE?$AAT?$AA?$AA@ 00000000000250e8     WebServer:HTTP.obj
 0002:00002e90       ??_C@_0BF@CBLBEHLK@HTTP?3?5Invalid?5verb?$AN?6?$AA@ 00000000000250f0     WebServer:HTTP.obj
 0002:00002ea8       ??_C@_0CF@FBPIFIAJ@HTTP?3?5Page?5not?5found?5in?5page?5tab@ 0000000000025108     WebServer:HTTP.obj
 0002:00002ed0       ??_C@_0CB@ENGJIFHG@Exiting?5HttpRequest?0?5Status?3?5?$CFr?6@ 0000000000025130     WebServer:HTTP.obj
 0002:00002ef4       ??_C@_04GJOGLFEJ@?$CGlt?$DL?$AA@ 0000000000025154     WebServer:HTTP.obj
 0002:00002efc       ??_C@_04LOOHDCEI@?$CGgt?$DL?$AA@ 000000000002515c     WebServer:HTTP.obj
 0002:00002f04       ??_C@_05JKJFEODM@?$CGamp?$DL?$AA@ 0000000000025164     WebServer:HTTP.obj
 0002:00002f0c       ??_C@_06DDLNFFBN@?$CGquot?$DL?$AA@ 000000000002516c     WebServer:HTTP.obj
 0002:00002f14       ??_C@_06CDMPAACN@?$DMcode?$DO?$AA@ 0000000000025174     WebServer:HTTP.obj
 0002:00002f1c       ??_C@_06ODLOODK@?$CGnbsp?$DL?$AA@ 000000000002517c     WebServer:HTTP.obj
 0002:00002f24       ??_C@_01LFCBOECM@?4?$AA@   0000000000025184     WebServer:HTTP.obj
 0002:00002f28       ??_C@_07LDCONLDM@?$DMbr?1?$DO?$AN?6?$AA@ 0000000000025188     WebServer:HTTP.obj
 0002:00002f30       ??_C@_0BH@DGJBNLFM@Entering?5HttpSendGuid?6?$AA@ 0000000000025190     WebServer:HTTP.obj
 0002:00002f48       ??_C@_02MDDDDAID@0x?$AA@   00000000000251a8     WebServer:HTTP.obj
 0002:00002f4c       ??_C@_04FOFDHDLH@?0?50x?$AA@ 00000000000251ac     WebServer:HTTP.obj
 0002:00002f54       ??_C@_06IAJPBONB@?0?5?$HL?50x?$AA@ 00000000000251b4     WebServer:HTTP.obj
 0002:00002f5c       ??_C@_02KCGCGHLG@?5?$HN?$AA@ 00000000000251bc     WebServer:HTTP.obj
 0002:00002f60       ??_C@_0CC@CAPKOCDD@Exiting?5HttpSendGuid?0?5Status?3?5?$CFr@ 00000000000251c0     WebServer:HTTP.obj
 0002:00002f90       mPageList                  00000000000251f0     WebServer:PageList.obj
 0002:00003218       mPageCount                 0000000000025478     WebServer:PageList.obj
 0002:00003220       ??_C@_13CGOKJPIL@?$AA?1?$AA?$AA@ 0000000000025480     WebServer:PageList.obj
 0002:00003228       ??_C@_1BO@POCGNNPJ@?$AAI?$AAn?$AAd?$AAe?$AAx?$AA?5?$AAo?$AAf?$AA?5?$AAp?$AAa?$AAg?$AAe?$AAs?$AA?$AA@ 0000000000025488     WebServer:PageList.obj
 0002:00003248       ??_C@_1CG@PPGKHFPO@?$AA?1?$AAB?$AAo?$AAo?$AAt?$AAS?$AAe?$AAr?$AAv?$AAi?$AAc?$AAe?$AAs?$AAT?$AAa?$AAb?$AAl?$AAe?$AA?$AA@ 00000000000254a8     WebServer:PageList.obj
 0002:00003270       ??_C@_1CI@CNIMNGAD@?$AAB?$AAo?$AAo?$AAt?$AA?5?$AAS?$AAe?$AAr?$AAv?$AAi?$AAc?$AAe?$AAs?$AA?5?$AAT?$AAa?$AAb?$AAl?$AAe?$AA?$AA@ 00000000000254d0     WebServer:PageList.obj
 0002:00003298       ??_C@_1CI@IAPHGFIP@?$AA?1?$AAC?$AAo?$AAn?$AAf?$AAi?$AAg?$AAu?$AAr?$AAa?$AAt?$AAi?$AAo?$AAn?$AAT?$AAa?$AAb?$AAl?$AAe?$AA?$AA@ 00000000000254f8     WebServer:PageList.obj
 0002:000032c0       ??_C@_1CI@NIPKHCAP@?$AAC?$AAo?$AAn?$AAf?$AAi?$AAg?$AAu?$AAr?$AAa?$AAt?$AAi?$AAo?$AAn?$AA?5?$AAT?$AAa?$AAb?$AAl?$AAe?$AA?$AA@ 0000000000025520     WebServer:PageList.obj
 0002:000032e8       ??_C@_1BK@KNFLBJGM@?$AA?1?$AAD?$AAh?$AAc?$AAp?$AAO?$AAp?$AAt?$AAi?$AAo?$AAn?$AAs?$AA?$AA@ 0000000000025548     WebServer:PageList.obj
 0002:00003308       ??_C@_1BK@DDDICPEE@?$AAD?$AAH?$AAC?$AAP?$AA?5?$AAO?$AAp?$AAt?$AAi?$AAo?$AAn?$AAs?$AA?$AA@ 0000000000025568     WebServer:PageList.obj
 0002:00003328       ??_C@_1M@GLCHEODG@?$AA?1?$AAA?$AAP?$AAI?$AAC?$AA?$AA@ 0000000000025588     WebServer:PageList.obj
 0002:00003338       ??_C@_19JJNNKEKG@?$AAA?$AAP?$AAI?$AAC?$AA?$AA@ 0000000000025598     WebServer:PageList.obj
 0002:00003348       ??_C@_1M@FCLBFAHJ@?$AA?1?$AAB?$AAG?$AAR?$AAT?$AA?$AA@ 00000000000255a8     WebServer:PageList.obj
 0002:00003358       ??_C@_19KAELLKOJ@?$AAB?$AAG?$AAR?$AAT?$AA?$AA@ 00000000000255b8     WebServer:PageList.obj
 0002:00003368       ??_C@_1M@HCNBPOGJ@?$AA?1?$AAD?$AAS?$AAD?$AAT?$AA?$AA@ 00000000000255c8     WebServer:PageList.obj
 0002:00003380       ??_C@_1FO@HOPHOHF@?$AAD?$AAS?$AAD?$AAT?$AA?5?$AA?9?$AA?5?$AAD?$AAi?$AAf?$AAf?$AAe?$AAr?$AAe?$AAn?$AAt?$AAi?$AAa?$AAt?$AAe?$AAd?$AA?5?$AAS?$AAy?$AAs?$AAt?$AAe?$AAm?$AA?5?$AAD?$AAe?$AAs@ 00000000000255e0     WebServer:PageList.obj
 0002:000033e0       ??_C@_1CE@NLFFCNAF@?$AA?1?$AAD?$AAx?$AAe?$AAS?$AAe?$AAr?$AAv?$AAi?$AAc?$AAe?$AAs?$AAT?$AAa?$AAb?$AAl?$AAe?$AA?$AA@ 0000000000025640     WebServer:PageList.obj
 0002:00003408       ??_C@_1CG@BINILDMB@?$AAD?$AAX?$AAE?$AA?5?$AAS?$AAe?$AAr?$AAv?$AAi?$AAc?$AAe?$AAs?$AA?5?$AAT?$AAa?$AAb?$AAl?$AAe?$AA?$AA@ 0000000000025668     WebServer:PageList.obj
 0002:00003430       ??_C@_1M@CCAPFCIB@?$AA?1?$AAE?$AAx?$AAi?$AAt?$AA?$AA@ 0000000000025690     WebServer:PageList.obj
 0002:00003440       ??_C@_1CI@JECBGJMN@?$AAE?$AAx?$AAi?$AAt?$AA?5?$AAt?$AAh?$AAe?$AA?5?$AAw?$AAe?$AAb?$AA?5?$AAs?$AAe?$AAr?$AAv?$AAe?$AAr?$AA?$AA@ 00000000000256a0     WebServer:PageList.obj
 0002:00003468       ??_C@_1M@EILKBIAC@?$AA?1?$AAF?$AAA?$AAD?$AAT?$AA?$AA@ 00000000000256c8     WebServer:PageList.obj
 0002:00003480       ??_C@_1EI@LBDCMOIL@?$AAF?$AAA?$AAD?$AAT?$AA?5?$AA?9?$AA?5?$AAF?$AAi?$AAx?$AAe?$AAd?$AA?5?$AAA?$AAC?$AAP?$AAI?$AA?5?$AAD?$AAe?$AAs?$AAc?$AAr?$AAi?$AAp?$AAt?$AAi?$AAo?$AAn?$AA?5?$AAT?$AAa@ 00000000000256e0     WebServer:PageList.obj
 0002:000034c8       ??_C@_1BE@DJLIIENF@?$AA?1?$AAF?$AAi?$AAr?$AAm?$AAw?$AAa?$AAr?$AAe?$AA?$AA@ 0000000000025728     WebServer:PageList.obj
 0002:000034e0       ??_C@_1BC@DHBFPADP@?$AAF?$AAi?$AAr?$AAm?$AAw?$AAa?$AAr?$AAe?$AA?$AA@ 0000000000025740     WebServer:PageList.obj
 0002:000034f8       ??_C@_1BC@MAPKBEHD@?$AA?1?$AAH?$AAa?$AAn?$AAd?$AAl?$AAe?$AAs?$AA?$AA@ 0000000000025758     WebServer:PageList.obj
 0002:00003510       ??_C@_1FM@PIIEOBJP@?$AAD?$AAi?$AAs?$AAp?$AAl?$AAa?$AAy?$AA?5?$AAh?$AAa?$AAn?$AAd?$AAl?$AAe?$AAs?$AA?5?$AAa?$AAn?$AAd?$AA?5?$AAa?$AAs?$AAs?$AAo?$AAc?$AAi?$AAa?$AAt?$AAe?$AAd?$AA?5?$AAp@ 0000000000025770     WebServer:PageList.obj
 0002:00003570       ??_C@_1O@CPCCNJKM@?$AA?1?$AAH?$AAe?$AAl?$AAl?$AAo?$AA?$AA@ 00000000000257d0     WebServer:PageList.obj
 0002:00003580       ??_C@_1BI@JBHAIODP@?$AAH?$AAe?$AAl?$AAl?$AAo?$AA?5?$AAW?$AAo?$AAr?$AAl?$AAd?$AA?$AA@ 00000000000257e0     WebServer:PageList.obj
 0002:00003598       ??_C@_1M@CNDOMKKB@?$AA?1?$AAH?$AAP?$AAE?$AAT?$AA?$AA@ 00000000000257f8     WebServer:PageList.obj
 0002:000035a8       ??_C@_19NPMECADB@?$AAH?$AAP?$AAE?$AAT?$AA?$AA@ 0000000000025808     WebServer:PageList.obj
 0002:000035b8       ??_C@_1M@PNBLLNPC@?$AA?1?$AAM?$AAC?$AAF?$AAG?$AA?$AA@ 0000000000025818     WebServer:PageList.obj
 0002:000035c8       ??_C@_19POBFHGC@?$AAM?$AAC?$AAF?$AAG?$AA?$AA@ 0000000000025828     WebServer:PageList.obj
 0002:000035d8       ??_C@_1BG@LBCLCFPH@?$AA?1?$AAM?$AAe?$AAm?$AAo?$AAr?$AAy?$AAM?$AAa?$AAp?$AA?$AA@ 0000000000025838     WebServer:PageList.obj
 0002:000035f0       ??_C@_1BG@CPKHBFBO@?$AAM?$AAe?$AAm?$AAo?$AAr?$AAy?$AA?5?$AAM?$AAa?$AAp?$AA?$AA@ 0000000000025850     WebServer:PageList.obj
 0002:00003608       ??_C@_1O@IEEIIIAP@?$AA?1?$AAM?$AAT?$AAR?$AAR?$AAs?$AA?$AA@ 0000000000025868     WebServer:PageList.obj
 0002:00003618       ??_C@_1DI@OAFNKHEK@?$AAM?$AAe?$AAm?$AAo?$AAr?$AAy?$AA?5?$AAT?$AAy?$AAp?$AAe?$AA?5?$AAR?$AAa?$AAn?$AAg?$AAe?$AA?5?$AAR?$AAe?$AAg?$AAi?$AAs?$AAt?$AAe?$AAr?$AAs?$AA?$AA@ 0000000000025878     WebServer:PageList.obj
 0002:00003650       ??_C@_1O@KOGPJJKP@?$AA?1?$AAP?$AAo?$AAr?$AAt?$AAs?$AA?$AA@ 00000000000258b0     WebServer:PageList.obj
 0002:00003660       ??_C@_1DC@PLDGDAGP@?$AAD?$AAi?$AAs?$AAp?$AAl?$AAa?$AAy?$AA?5?$AAw?$AAe?$AAb?$AA?9?$AAs?$AAe?$AAr?$AAv?$AAe?$AAr?$AA?5?$AAp?$AAo?$AAr?$AAt?$AAs?$AA?$AA@ 00000000000258c0     WebServer:PageList.obj
 0002:00003698       ??_C@_1BA@DNCDFANL@?$AA?1?$AAR?$AAe?$AAb?$AAo?$AAo?$AAt?$AA?$AA@ 00000000000258f8     WebServer:PageList.obj
 0002:000036a8       ??_C@_1CC@MHOOFLHP@?$AAR?$AAe?$AAb?$AAo?$AAo?$AAt?$AA?5?$AAt?$AAh?$AAe?$AA?5?$AAs?$AAy?$AAt?$AAe?$AAm?$AA?$AA@ 0000000000025908     WebServer:PageList.obj
 0002:000036d0       ??_C@_1BE@HMNEPMJE@?$AA?1?$AAR?$AAS?$AAD?$AAP?$AA1?$AA?4?$AA0?$AAb?$AA?$AA@ 0000000000025930     WebServer:PageList.obj
 0002:000036f0       ??_C@_1GC@EPGDJKGI@?$AAR?$AAS?$AAD?$AAP?$AA?5?$AA1?$AA?4?$AA0?$AAb?$AA?5?$AA?9?$AA?5?$AAA?$AAC?$AAP?$AAI?$AA?5?$AAR?$AAo?$AAo?$AAt?$AA?5?$AAS?$AAy?$AAs?$AAt?$AAe?$AAm?$AA?5?$AAD?$AAe?$AAs@ 0000000000025950     WebServer:PageList.obj
 0002:00003758       ??_C@_1BC@GLPAONBF@?$AA?1?$AAR?$AAS?$AAD?$AAP?$AA3?$AA?4?$AA0?$AA?$AA@ 00000000000259b8     WebServer:PageList.obj
 0002:00003770       ??_C@_1GA@OCEOJFIK@?$AAR?$AAS?$AAD?$AAP?$AA?5?$AA3?$AA?4?$AA0?$AA?5?$AA?9?$AA?5?$AAA?$AAC?$AAP?$AAI?$AA?5?$AAR?$AAo?$AAo?$AAt?$AA?5?$AAS?$AAy?$AAs?$AAt?$AAe?$AAm?$AA?5?$AAD?$AAe?$AAs?$AAc@ 00000000000259d0     WebServer:PageList.obj
 0002:000037d0       ??_C@_1M@FIGBAPMG@?$AA?1?$AAR?$AAS?$AAD?$AAT?$AA?$AA@ 0000000000025a30     WebServer:PageList.obj
 0002:000037e0       ??_C@_1FE@PEALILIK@?$AAR?$AAS?$AAD?$AAT?$AA?5?$AA?9?$AA?5?$AAA?$AAC?$AAP?$AAI?$AA?5?$AAR?$AAo?$AAo?$AAt?$AA?5?$AAS?$AAy?$AAs?$AAt?$AAe?$AAm?$AA?5?$AAD?$AAe?$AAs?$AAc?$AAr?$AAi?$AAp?$AAt@ 0000000000025a40     WebServer:PageList.obj
 0002:00003838       ??_C@_1CM@EPOHLBCE@?$AA?1?$AAR?$AAu?$AAn?$AAt?$AAi?$AAm?$AAe?$AAS?$AAe?$AAr?$AAv?$AAi?$AAc?$AAe?$AAs?$AAT?$AAa?$AAb?$AAl?$AAe?$AA?$AA@ 0000000000025a98     WebServer:PageList.obj
 0002:00003868       ??_C@_1CO@OIFAFKIO@?$AAR?$AAu?$AAn?$AAt?$AAi?$AAm?$AAe?$AA?5?$AAS?$AAe?$AAr?$AAv?$AAi?$AAc?$AAe?$AAs?$AA?5?$AAT?$AAa?$AAb?$AAl?$AAe?$AA?$AA@ 0000000000025ac8     WebServer:PageList.obj
 0002:00003898       ??_C@_1M@LHKDGEPI@?$AA?1?$AAS?$AAS?$AAD?$AAT?$AA?$AA@ 0000000000025af8     WebServer:PageList.obj
 0002:000038a8       ??_C@_19EFFJIOGI@?$AAS?$AAS?$AAD?$AAT?$AA?$AA@ 0000000000025b08     WebServer:PageList.obj
 0002:000038b8       ??_C@_1BK@CMAEKJHH@?$AA?1?$AAS?$AAy?$AAs?$AAt?$AAe?$AAm?$AAT?$AAa?$AAb?$AAl?$AAe?$AA?$AA@ 0000000000025b18     WebServer:PageList.obj
 0002:000038d8       ??_C@_1BK@HFPCCLDL@?$AAS?$AAy?$AAs?$AAt?$AAe?$AAm?$AA?5?$AAT?$AAa?$AAb?$AAl?$AAe?$AA?$AA@ 0000000000025b38     WebServer:PageList.obj
 0002:000038f8       ??_C@_1M@NGEEKJIK@?$AA?1?$AAT?$AAC?$AAP?$AAA?$AA?$AA@ 0000000000025b58     WebServer:PageList.obj
 0002:00003908       ??_C@_19CELOEDBK@?$AAT?$AAC?$AAP?$AAA?$AA?$AA@ 0000000000025b68     WebServer:PageList.obj
 0002:00003918       ??_C@_1M@OPNCACFK@?$AA?1?$AAU?$AAE?$AAF?$AAI?$AA?$AA@ 0000000000025b78     WebServer:PageList.obj
 0002:00003928       ??_C@_19BNCIOIMK@?$AAU?$AAE?$AAF?$AAI?$AA?$AA@ 0000000000025b88     WebServer:PageList.obj
 0002:00003934       ??_C@_04DDFMNMDA@APIC?$AA@ 0000000000025b94     WebServer:ACPI.obj
 0002:0000393c       ??_C@_04KMMCABMB@BGRT?$AA@ 0000000000025b9c     WebServer:ACPI.obj
 0002:00003944       ??_C@_04OEFCOLGL@DSDT?$AA@ 0000000000025ba4     WebServer:ACPI.obj
 0002:0000394c       ??_C@_04GEICCHBP@FADT?$AA@ 0000000000025bac     WebServer:ACPI.obj
 0002:00003954       ??_C@_04DCNFMDLD@HPET?$AA@ 0000000000025bb4     WebServer:ACPI.obj
 0002:0000395c       ??_C@_04NLDAELHJ@MCFG?$AA@ 0000000000025bbc     WebServer:ACPI.obj
 0002:00003964       ??_C@_04DGJCKAPJ@SSDT?$AA@ 0000000000025bc4     WebServer:ACPI.obj
 0002:0000396c       ??_C@_04PIDBMGMO@TCPA?$AA@ 0000000000025bcc     WebServer:ACPI.obj
 0002:00003974       ??_C@_04DAEIOFGI@UEFI?$AA@ 0000000000025bd4     WebServer:ACPI.obj
 0002:00003980       ??_C@_0BH@KNOKBNGN@Entering?5RowAnsiArray?6?$AA@ 0000000000025be0     WebServer:ACPI.obj
 0002:00003998       ??_C@_08DCPJPKOP@?$DMtr?$DO?$DMtd?$DO?$AA@ 0000000000025bf8     WebServer:ACPI.obj
 0002:000039a8       ??_C@_0BA@FEOEPLHM@?$DM?1td?$DO?$DMtd?$DO?$DMcode?$DO?$AA@ 0000000000025c08     WebServer:ACPI.obj
 0002:000039b8       ??_C@_01CLKCMJKC@?5?$AA@   0000000000025c18     WebServer:ACPI.obj
 0002:000039c0       ??_C@_07ICJELGIL@?$DMbr?1?$DO0x?$AA@ 0000000000025c20     WebServer:ACPI.obj
 0002:000039c8       ??_C@_03LNAEJJLD@?50x?$AA@ 0000000000025c28     WebServer:ACPI.obj
 0002:000039d0       ??_C@_0BE@GFAEJBMK@?$DM?1code?$DO?$DM?1td?$DO?$DM?1tr?$DO?$AN?6?$AA@ 0000000000025c30     WebServer:ACPI.obj
 0002:000039e8       ??_C@_0CC@KAADNMOH@Exiting?5RowAnsiArray?0?5Status?3?5?$CFr@ 0000000000025c48     WebServer:ACPI.obj
 0002:00003a10       ??_C@_0BC@GKGIFPOE@?$DM?1td?$DO?$DMtd?$DO?$DMcode?$DO0x?$AA@ 0000000000025c70     WebServer:ACPI.obj
 0002:00003a28       ??_C@_09NEPGDDMB@?$DM?1td?$DO?$DMtd?$DO?$AA@ 0000000000025c88     WebServer:ACPI.obj
 0002:00003a38       ??_C@_0N@GNBMDAGP@?$DM?1td?$DO?$DM?1tr?$DO?$AN?6?$AA@ 0000000000025c98     WebServer:ACPI.obj
 0002:00003a48       ??_C@_0O@OAHOAHIO@System?5Memory?$AA@ 0000000000025ca8     WebServer:ACPI.obj
 0002:00003a58       ??_C@_09LONLPPCH@I?1O?5Space?$AA@ 0000000000025cb8     WebServer:ACPI.obj
 0002:00003a68       ??_C@_0BI@GPOONJJE@PCI?5Configuration?5Space?$AA@ 0000000000025cc8     WebServer:ACPI.obj
 0002:00003a80       ??_C@_0BE@DBDDEFH@Embedded?5Controller?$AA@ 0000000000025ce0     WebServer:ACPI.obj
 0002:00003a94       ??_C@_05DHBKIMF@SMBus?$AA@ 0000000000025cf4     WebServer:ACPI.obj
 0002:00003aa0       ??_C@_0BK@HFKAKGLI@Functional?5Fixed?5Hardware?$AA@ 0000000000025d00     WebServer:ACPI.obj
 0002:00003ac0       ??_C@_0M@CCNFNLHJ@OEM?5Defined?$AA@ 0000000000025d20     WebServer:ACPI.obj
 0002:00003ad0       ??_C@_08NKCLJDKG@Reserved?$AA@ 0000000000025d30     WebServer:ACPI.obj
 0002:00003ae0       ??_C@_0BK@PDCBHBHE@?$DMbr?1?$DORegister?5Bit?5Width?3?5?$AA@ 0000000000025d40     WebServer:ACPI.obj
 0002:00003b00       ??_C@_0BL@BEFHKOLL@?$DMbr?1?$DORegister?5Bit?5Offset?3?5?$AA@ 0000000000025d60     WebServer:ACPI.obj
 0002:00003b20       ??_C@_0BD@BIKMKCCG@?$DMbr?1?$DOAccess?5Size?3?5?$AA@ 0000000000025d80     WebServer:ACPI.obj
 0002:00003b38       ??_C@_0P@HKMEMOOA@?$DMbr?1?$DOAddress?3?5?$AA@ 0000000000025d98     WebServer:ACPI.obj
 0002:00003b48       ??_C@_0BK@PDDGAJJL@?$DMa?5target?$DN?$CC_blank?$CC?5href?$DN?$CC?$AA@ 0000000000025da8     WebServer:ACPI.obj
 0002:00003b64       ??_C@_02HKLCKPBO@?$CC?$DO?$AA@ 0000000000025dc4     WebServer:ACPI.obj
 0002:00003b68       ??_C@_04KNINFIGH@?$DM?1a?$DO?$AA@ 0000000000025dc8     WebServer:ACPI.obj
 0002:00003b70       ??_C@_0BH@OHMODKLG@Entering?5AcpiApicPage?6?$AA@ 0000000000025dd0     WebServer:ACPI.obj
 0002:00003b88       ??_C@_1BG@DHIKDBJN@?$AAA?$AAP?$AAI?$AAC?$AA?5?$AAT?$AAa?$AAb?$AAl?$AAe?$AA?$AA@ 0000000000025de8     WebServer:ACPI.obj
 0002:00003ba0       ??_C@_09GDNFOKKF@Signature?$AA@ 0000000000025e00     WebServer:ACPI.obj
 0002:00003bac       ??_C@_06MHCOIGNA@Length?$AA@ 0000000000025e0c     WebServer:ACPI.obj
 0002:00003bb4       ??_C@_04DICKPMGH@Data?$AA@ 0000000000025e14     WebServer:ACPI.obj
 0002:00003bc0       ??_C@_0CC@CPIAPNGC@Exiting?5AcpiApicPage?0?5Status?3?5?$CFr@ 0000000000025e20     WebServer:ACPI.obj
 0002:00003be8       ??_C@_0BH@EHPACBDA@Entering?5AcpiBgrtPage?6?$AA@ 0000000000025e48     WebServer:ACPI.obj
 0002:00003c00       ??_C@_1BG@MHNKHIPG@?$AAB?$AAG?$AAR?$AAT?$AA?5?$AAT?$AAa?$AAb?$AAl?$AAe?$AA?$AA@ 0000000000025e60     WebServer:ACPI.obj
 0002:00003c18       ??_C@_0CC@LPDDEEIK@Exiting?5AcpiBgrtPage?0?5Status?3?5?$CFr@ 0000000000025e78     WebServer:ACPI.obj
 0002:00003c40       ??_C@_0BH@BBGHKKG@Entering?5AcpiDsdtPage?6?$AA@ 0000000000025ea0     WebServer:ACPI.obj
 0002:00003c58       ??_C@_08DNLDHPFP@Revision?$AA@ 0000000000025eb8     WebServer:ACPI.obj
 0002:00003c68       ??_C@_08LPAIIHFE@Checksum?$AA@ 0000000000025ec8     WebServer:ACPI.obj
 0002:00003c74       ??_C@_05KCAAINHC@OEMID?$AA@ 0000000000025ed4     WebServer:ACPI.obj
 0002:00003c80       ??_C@_0N@NKGJCDME@OEM?5Table?5ID?$AA@ 0000000000025ee0     WebServer:ACPI.obj
 0002:00003c90       ??_C@_0N@LEHCPODF@OEM?5Revision?$AA@ 0000000000025ef0     WebServer:ACPI.obj
 0002:00003ca0       ??_C@_0L@KCAGJPO@Creator?5ID?$AA@ 0000000000025f00     WebServer:ACPI.obj
 0002:00003cb0       ??_C@_0BB@ONLMKKPI@Creator?5Revision?$AA@ 0000000000025f10     WebServer:ACPI.obj
 0002:00003cc8       ??_C@_0BB@DGHKHCH@Definition?5Block?$AA@ 0000000000025f28     WebServer:ACPI.obj
 0002:00003ce0       ??_C@_0CC@PADKDOKN@Exiting?5AcpiDsdtPage?0?5Status?3?5?$CFr@ 0000000000025f40     WebServer:ACPI.obj
 0002:00003d08       ??_C@_0BH@IHNFMAGM@Entering?5AcpiFadtPage?6?$AA@ 0000000000025f68     WebServer:ACPI.obj
 0002:00003d20       ??_C@_0O@GGLKOPMO@FIRMWARE_CTRL?$AA@ 0000000000025f80     WebServer:ACPI.obj
 0002:00003d30       ??_C@_0BF@CBLGDOKA@Preferred_PM_Profile?$AA@ 0000000000025f90     WebServer:ACPI.obj
 0002:00003d48       ??_C@_07OEEMJHME@SCI_INT?$AA@ 0000000000025fa8     WebServer:ACPI.obj
 0002:00003d50       ??_C@_07JDEKKAPF@SMI_CMD?$AA@ 0000000000025fb0     WebServer:ACPI.obj
 0002:00003d58       ??_C@_0M@KEAEHAPG@ACPI_ENABLE?$AA@ 0000000000025fb8     WebServer:ACPI.obj
 0002:00003d68       ??_C@_0N@DGMJEDPF@ACPI_DISABLE?$AA@ 0000000000025fc8     WebServer:ACPI.obj
 0002:00003d78       ??_C@_0L@OEGFOGPH@S4BIOS_REQ?$AA@ 0000000000025fd8     WebServer:ACPI.obj
 0002:00003d88       ??_C@_0L@GLFCLNFN@PSTATE_CNT?$AA@ 0000000000025fe8     WebServer:ACPI.obj
 0002:00003d98       ??_C@_0N@HKNDDNAE@PM1a_EVT_BLK?$AA@ 0000000000025ff8     WebServer:ACPI.obj
 0002:00003da8       ??_C@_0N@JBOEIGAH@PM1b_EVT_BLK?$AA@ 0000000000026008     WebServer:ACPI.obj
 0002:00003db8       ??_C@_0N@OIINOGCK@PM1a_CNT_BLK?$AA@ 0000000000026018     WebServer:ACPI.obj
 0002:00003dc8       ??_C@_0N@DLKFNCJ@PM1b_CNT_BLK?$AA@ 0000000000026028     WebServer:ACPI.obj
 0002:00003dd8       ??_C@_0M@KBAKEANL@PM2_CNT_BLK?$AA@ 0000000000026038     WebServer:ACPI.obj
 0002:00003de8       ??_C@_0L@HOMMPLDP@PM_TMR_BLK?$AA@ 0000000000026048     WebServer:ACPI.obj
 0002:00003df8       ??_C@_08FDJABOM@GPE0_BLK?$AA@ 0000000000026058     WebServer:ACPI.obj
 0002:00003e08       ??_C@_08MOGFNCEJ@GPE1_BLK?$AA@ 0000000000026068     WebServer:ACPI.obj
 0002:00003e18       ??_C@_0M@EKBKJIAP@PM1_EVT_LEN?$AA@ 0000000000026078     WebServer:ACPI.obj
 0002:00003e28       ??_C@_0M@NIEEEDCB@PM1_CNT_LEN?$AA@ 0000000000026088     WebServer:ACPI.obj
 0002:00003e38       ??_C@_0M@DDHDPICC@PM2_CNT_LEN?$AA@ 0000000000026098     WebServer:ACPI.obj
 0002:00003e48       ??_C@_0L@OMLFEDMG@PM_TMR_LEN?$AA@ 00000000000260a8     WebServer:ACPI.obj
 0002:00003e58       ??_C@_0N@JAKPHPLN@GPE0_BLK_LEN?$AA@ 00000000000260b8     WebServer:ACPI.obj
 0002:00003e68       ??_C@_0N@HPGNBEID@GPE1_BLK_LEN?$AA@ 00000000000260c8     WebServer:ACPI.obj
 0002:00003e78       ??_C@_09GCJPANLD@GPE1_BASE?$AA@ 00000000000260d8     WebServer:ACPI.obj
 0002:00003e88       ??_C@_07CPNMMLAA@CST_CNT?$AA@ 00000000000260e8     WebServer:ACPI.obj
 0002:00003e90       ??_C@_0L@BCBDNDD@P_LVL2_LAT?$AA@ 00000000000260f0     WebServer:ACPI.obj
 0002:00003ea0       ??_C@_0L@MKHNOOJG@P_LVL3_LAT?$AA@ 0000000000026100     WebServer:ACPI.obj
 0002:00003eb0       ??_C@_0L@DCNJLJDL@FLUSH_SIZE?$AA@ 0000000000026110     WebServer:ACPI.obj
 0002:00003ec0       ??_C@_0N@HKOKEKOH@FLUSH_Stride?$AA@ 0000000000026120     WebServer:ACPI.obj
 0002:00003ed0       ??_C@_0M@JBGBMCDD@DUTY_OFFSET?$AA@ 0000000000026130     WebServer:ACPI.obj
 0002:00003ee0       ??_C@_0L@BOJFIGMH@DUTY_WIDTH?$AA@ 0000000000026140     WebServer:ACPI.obj
 0002:00003ef0       ??_C@_08KKJEDAIF@DAY_ALRM?$AA@ 0000000000026150     WebServer:ACPI.obj
 0002:00003f00       ??_C@_08LBMEDGKM@MON_ALRM?$AA@ 0000000000026160     WebServer:ACPI.obj
 0002:00003f10       ??_C@_07CLKPFOAC@CENTURY?$AA@ 0000000000026170     WebServer:ACPI.obj
 0002:00003f18       ??_C@_0P@OCFCABNG@IAPC_BOOT_ARCH?$AA@ 0000000000026178     WebServer:ACPI.obj
 0002:00003f28       ??_C@_05BOOEKJH@Flags?$AA@ 0000000000026188     WebServer:ACPI.obj
 0002:00003f30       ??_C@_09HNDKGKHE@RESET_REG?$AA@ 0000000000026190     WebServer:ACPI.obj
 0002:00003f40       ??_C@_0M@LIFNHNEC@RESET_VALUE?$AA@ 00000000000261a0     WebServer:ACPI.obj
 0002:00003f50       ??_C@_0BA@DKOBKNNI@X_FIRMWARE_CTRL?$AA@ 00000000000261b0     WebServer:ACPI.obj
 0002:00003f60       ??_C@_06FCPONOPK@X_DSDT?$AA@ 00000000000261c0     WebServer:ACPI.obj
 0002:00003f68       ??_C@_0P@JCPLCPLP@X_PM1a_EVT_BLK?$AA@ 00000000000261c8     WebServer:ACPI.obj
 0002:00003f78       ??_C@_0P@HJMMJELM@X_PM1b_EVT_BLK?$AA@ 00000000000261d8     WebServer:ACPI.obj
 0002:00003f88       ??_C@_0P@KFPEJB@X_PM1a_CNT_BLK?$AA@ 00000000000261e8     WebServer:ACPI.obj
 0002:00003f98       ??_C@_0P@OLJCEPJC@X_PM1b_CNT_BLK?$AA@ 00000000000261f8     WebServer:ACPI.obj
 0002:00003fa8       ??_C@_0O@DBMMMIJM@X_PM2_CNT_BLK?$AA@ 0000000000026208     WebServer:ACPI.obj
 0002:00003fb8       ??_C@_0N@HFJCNDA@X_PM_TMR_BLK?$AA@ 0000000000026218     WebServer:ACPI.obj
 0002:00003fc8       ??_C@_0L@CNFEFAK@X_GPE0_BLK?$AA@ 0000000000026228     WebServer:ACPI.obj
 0002:00003fd8       ??_C@_0L@MJIJJGKP@X_GPE1_BLK?$AA@ 0000000000026238     WebServer:ACPI.obj
 0002:00003fe8       ??_C@_0CC@HBEKOELM@Exiting?5AcpiFadtPage?0?5Status?3?5?$CFr@ 0000000000026248     WebServer:ACPI.obj
 0002:00004010       ??_C@_0BH@OOANKGHD@Entering?5AcpiHpetPage?6?$AA@ 0000000000026270     WebServer:ACPI.obj
 0002:00004028       ??_C@_1BG@JOMGMMLM@?$AAH?$AAP?$AAE?$AAT?$AA?5?$AAT?$AAa?$AAb?$AAl?$AAe?$AA?$AA@ 0000000000026288     WebServer:ACPI.obj
 0002:00004040       ??_C@_0CC@LKBDCAI@Exiting?5AcpiHpetPage?0?5Status?3?5?$CFr@ 00000000000262a0     WebServer:ACPI.obj
 0002:00004068       ??_C@_0BH@EFNAJCDD@Entering?5AcpiMcfgPage?6?$AA@ 00000000000262c8     WebServer:ACPI.obj
 0002:00004080       ??_C@_1BG@LPEJIKJN@?$AAM?$AAC?$AAF?$AAG?$AA?5?$AAT?$AAa?$AAb?$AAl?$AAe?$AA?$AA@ 00000000000262e0     WebServer:ACPI.obj
 0002:00004098       ??_C@_0CC@GPGPKFKO@Exiting?5AcpiMcfgPage?0?5Status?3?5?$CFr@ 00000000000262f8     WebServer:ACPI.obj
 0002:000040c0       ??_C@_0BJ@POOHIGCH@Entering?5AcpiRsdp10Page?6?$AA@ 0000000000026320     WebServer:ACPI.obj
 0002:000040e0       ??_C@_1GC@EPGDBBE@?$AAR?$AAS?$AAD?$AAP?$AA?5?$AA?9?$AA?5?$AAA?$AAC?$AAP?$AAI?$AA?5?$AA1?$AA?4?$AA0?$AAb?$AA?5?$AAR?$AAo?$AAo?$AAt?$AA?5?$AAS?$AAy?$AAs?$AAt?$AAe?$AAm?$AA?5?$AAD?$AAe?$AAs@ 0000000000026340     WebServer:ACPI.obj
 0002:00004144       ??_C@_05FGHHCJOK@OemId?$AA@ 00000000000263a4     WebServer:ACPI.obj
 0002:00004150       ??_C@_0M@JCANFAEJ@RsdtAddress?$AA@ 00000000000263b0     WebServer:ACPI.obj
 0002:00004160       ??_C@_0CE@GIFABBDG@Exiting?5AcpiRsdp10Page?0?5Status?3?5@ 00000000000263c0     WebServer:ACPI.obj
 0002:00004188       ??_C@_0BJ@LMMCIBFK@Entering?5AcpiRsdp30Page?6?$AA@ 00000000000263e8     WebServer:ACPI.obj
 0002:000041b0       ??_C@_1GA@KGFBFEPD@?$AAR?$AAS?$AAD?$AAP?$AA?5?$AA?9?$AA?5?$AAA?$AAC?$AAP?$AAI?$AA?5?$AA3?$AA?4?$AA0?$AA?5?$AAR?$AAo?$AAo?$AAt?$AA?5?$AAS?$AAy?$AAs?$AAt?$AAe?$AAm?$AA?5?$AAD?$AAe?$AAs?$AAc@ 0000000000026410     WebServer:ACPI.obj
 0002:00004210       ??_C@_0M@HIDKLICI@XsdtAddress?$AA@ 0000000000026470     WebServer:ACPI.obj
 0002:00004220       ??_C@_0BB@DHODIGAL@ExtendedChecksum?$AA@ 0000000000026480     WebServer:ACPI.obj
 0002:00004238       ??_C@_0CE@KCJOGHLK@Exiting?5AcpiRsdp30Page?0?5Status?3?5@ 0000000000026498     WebServer:ACPI.obj
 0002:00004260       ??_C@_0BH@CLKGILAJ@Entering?5AcpiRsdtPage?6?$AA@ 00000000000264c0     WebServer:ACPI.obj
 0002:00004278       ??_C@_0CC@CLDMCOGM@Exiting?5AcpiRsdtPage?0?5Status?3?5?$CFr@ 00000000000264d8     WebServer:ACPI.obj
 0002:000042a0       ??_C@_0BH@MEGEOADH@Entering?5AcpiSsdtPage?6?$AA@ 0000000000026500     WebServer:ACPI.obj
 0002:000042b8       ??_C@_1BG@PHPBPGJG@?$AAS?$AAS?$AAD?$AAT?$AA?5?$AAT?$AAa?$AAb?$AAl?$AAe?$AA?$AA@ 0000000000026518     WebServer:ACPI.obj
 0002:000042d0       ??_C@_0CC@DMBEEKKM@Exiting?5AcpiSsdtPage?0?5Status?3?5?$CFr@ 0000000000026530     WebServer:ACPI.obj
 0002:000042f8       ??_C@_0BH@EHGPDFIH@Entering?5AcpiTcpaPage?6?$AA@ 0000000000026558     WebServer:ACPI.obj
 0002:00004310       ??_C@_1BG@MLJLALGF@?$AAT?$AAC?$AAP?$AAA?$AA?5?$AAT?$AAa?$AAb?$AAl?$AAe?$AA?$AA@ 0000000000026570     WebServer:ACPI.obj
 0002:00004328       ??_C@_0CC@JBMKJAMM@Exiting?5AcpiTcpaPage?0?5Status?3?5?$CFr@ 0000000000026588     WebServer:ACPI.obj
 0002:00004350       ??_C@_0BH@FCIMFBPI@Entering?5AcpiUefiPage?6?$AA@ 00000000000265b0     WebServer:ACPI.obj
 0002:00004368       ??_C@_1BG@LFMINKC@?$AAU?$AAE?$AAF?$AAI?$AA?5?$AAT?$AAa?$AAb?$AAl?$AAe?$AA?$AA@ 00000000000265c8     WebServer:ACPI.obj
 0002:00004380       ??_C@_0CC@BNJLNKLP@Exiting?5AcpiUefiPage?0?5Status?3?5?$CFr@ 00000000000265e0     WebServer:ACPI.obj
 0002:000043b0       mTableId                   0000000000026610     WebServer:ACPI.obj
 0002:00004488       ??_C@_0BF@MOPKPKNB@Entering?5RebootPage?6?$AA@ 00000000000266e8     WebServer:Reboot.obj
 0002:000044a0       ??_C@_1O@JJPGHOAO@?$AAR?$AAe?$AAb?$AAo?$AAo?$AAt?$AA?$AA@ 0000000000026700     WebServer:Reboot.obj
 0002:000044b0       ??_C@_0DK@FCHJCGHH@?$DMh1?$DOReboot?$DM?1h1?$DO?$AN?6?$DMp?$DO?$AN?6?5?5Ouch?$CB?5?5T@ 0000000000026710     WebServer:Reboot.obj
 0002:000044f0       ??_C@_0BC@FLGMDNIO@Reseting?5System?$AN?6?$AA@ 0000000000026750     WebServer:Reboot.obj
 0002:00004508       ??_C@_0CA@PHNJADEN@Exiting?5RebootPage?0?5Status?3?5?$CFr?6?$AA@ 0000000000026768     WebServer:Reboot.obj
 0002:00004528       ??_C@_0CA@LDNFPKJP@Entering?5BootServicesTablePage?6?$AA@ 0000000000026788     WebServer:BootServicesTable.obj
 0002:00004548       ??_C@_08OPEGBKKM@RaiseTPL?$AA@ 00000000000267a8     WebServer:BootServicesTable.obj
 0002:00004558       ??_C@_0L@HMIJFLAP@RestoreTPL?$AA@ 00000000000267b8     WebServer:BootServicesTable.obj
 0002:00004568       ??_C@_0O@EMLANMJP@AllocatePages?$AA@ 00000000000267c8     WebServer:BootServicesTable.obj
 0002:00004578       ??_C@_09FECCHMOO@FreePages?$AA@ 00000000000267d8     WebServer:BootServicesTable.obj
 0002:00004588       ??_C@_0N@DIKDKDAP@GetMemoryMap?$AA@ 00000000000267e8     WebServer:BootServicesTable.obj
 0002:00004598       ??_C@_0N@CPMOHMGF@AllocatePool?$AA@ 00000000000267f8     WebServer:BootServicesTable.obj
 0002:000045a8       ??_C@_08KCJHKLC@FreePool?$AA@ 0000000000026808     WebServer:BootServicesTable.obj
 0002:000045b8       ??_C@_0M@MEDOMCAA@CreateEvent?$AA@ 0000000000026818     WebServer:BootServicesTable.obj
 0002:000045c8       ??_C@_08ELGBKOLJ@SetTimer?$AA@ 0000000000026828     WebServer:BootServicesTable.obj
 0002:000045d8       ??_C@_0N@BAOPPPKN@WaitForEvent?$AA@ 0000000000026838     WebServer:BootServicesTable.obj
 0002:000045e8       ??_C@_0M@DPHOAJAD@SignalEvent?$AA@ 0000000000026848     WebServer:BootServicesTable.obj
 0002:000045f8       ??_C@_0L@EEGHLNBO@CloseEvent?$AA@ 0000000000026858     WebServer:BootServicesTable.obj
 0002:00004608       ??_C@_0L@PECGNNIM@CheckEvent?$AA@ 0000000000026868     WebServer:BootServicesTable.obj
 0002:00004618       ??_C@_0BJ@CCMKOOEO@InstallProtocolInterface?$AA@ 0000000000026878     WebServer:BootServicesTable.obj
 0002:00004638       ??_C@_0BL@MGBICNLH@ReinstallProtocolInterface?$AA@ 0000000000026898     WebServer:BootServicesTable.obj
 0002:00004658       ??_C@_0BL@LDLDKLHF@UninstallProtocolInterface?$AA@ 00000000000268b8     WebServer:BootServicesTable.obj
 0002:00004678       ??_C@_0P@EHJFNLGI@HandleProtocol?$AA@ 00000000000268d8     WebServer:BootServicesTable.obj
 0002:00004688       ??_C@_0BH@BFPCFDGN@RegisterProtocolNotify?$AA@ 00000000000268e8     WebServer:BootServicesTable.obj
 0002:000046a0       ??_C@_0N@DAGACCBK@LocateHandle?$AA@ 0000000000026900     WebServer:BootServicesTable.obj
 0002:000046b0       ??_C@_0BB@HLLILHBM@LocateDevicePath?$AA@ 0000000000026910     WebServer:BootServicesTable.obj
 0002:000046c8       ??_C@_0BK@MMOLKICJ@InstallConfigurationTable?$AA@ 0000000000026928     WebServer:BootServicesTable.obj
 0002:000046e8       ??_C@_09OHOMMMHI@LoadImage?$AA@ 0000000000026948     WebServer:BootServicesTable.obj
 0002:000046f8       ??_C@_0L@KILBBNJP@StartImage?$AA@ 0000000000026958     WebServer:BootServicesTable.obj
 0002:00004704       ??_C@_04LBABLPF@Exit?$AA@  0000000000026964     WebServer:BootServicesTable.obj
 0002:00004710       ??_C@_0M@JGJEPBJD@UnloadImage?$AA@ 0000000000026970     WebServer:BootServicesTable.obj
 0002:00004720       ??_C@_0BB@MNHMMHKG@ExitBootServices?$AA@ 0000000000026980     WebServer:BootServicesTable.obj
 0002:00004738       ??_C@_0BG@MOKFGNMM@GetNextMonotonicCount?$AA@ 0000000000026998     WebServer:BootServicesTable.obj
 0002:00004750       ??_C@_05MDGKOEID@Stall?$AA@ 00000000000269b0     WebServer:BootServicesTable.obj
 0002:00004758       ??_C@_0BB@ICHNFIMJ@SetWatchdogTimer?$AA@ 00000000000269b8     WebServer:BootServicesTable.obj
 0002:00004770       ??_C@_0BC@HIICGLAE@ConnectController?$AA@ 00000000000269d0     WebServer:BootServicesTable.obj
 0002:00004788       ??_C@_0BF@OJODKKMO@DisconnectController?$AA@ 00000000000269e8     WebServer:BootServicesTable.obj
 0002:000047a0       ??_C@_0N@GJMJMGCJ@OpenProtocol?$AA@ 0000000000026a00     WebServer:BootServicesTable.obj
 0002:000047b0       ??_C@_0O@EEEFILIP@CloseProtocol?$AA@ 0000000000026a10     WebServer:BootServicesTable.obj
 0002:000047c0       ??_C@_0BI@JGMOJIKP@OpenProtocolInformation?$AA@ 0000000000026a20     WebServer:BootServicesTable.obj
 0002:000047d8       ??_C@_0BD@LCPIIENB@ProtocolsPerHandle?$AA@ 0000000000026a38     WebServer:BootServicesTable.obj
 0002:000047f0       ??_C@_0BD@NFFAIPKF@LocateHandleBuffer?$AA@ 0000000000026a50     WebServer:BootServicesTable.obj
 0002:00004808       ??_C@_0P@MNMINJGL@LocateProtocol?$AA@ 0000000000026a68     WebServer:BootServicesTable.obj
 0002:00004818       ??_C@_0CC@JHPKBNMA@InstallMultipleProtocolInterface@ 0000000000026a78     WebServer:BootServicesTable.obj
 0002:00004840       ??_C@_0CE@PFCJNPFI@UninstallMultipleProtocolInterfa@ 0000000000026aa0     WebServer:BootServicesTable.obj
 0002:00004868       ??_C@_0P@DPMPLBKG@CalculateCrc32?$AA@ 0000000000026ac8     WebServer:BootServicesTable.obj
 0002:00004878       ??_C@_07EIOAMKCK@CopyMem?$AA@ 0000000000026ad8     WebServer:BootServicesTable.obj
 0002:00004880       ??_C@_06NDPEJHIM@SetMem?$AA@ 0000000000026ae0     WebServer:BootServicesTable.obj
 0002:00004888       ??_C@_0O@OENNNLHH@CreateEventEx?$AA@ 0000000000026ae8     WebServer:BootServicesTable.obj
 0002:00004898       ??_C@_0CL@CEJBACEA@Exiting?5BootServicesTablePage?0?5S@ 0000000000026af8     WebServer:BootServicesTable.obj
 0002:000048c8       ??_C@_0BE@IKKJPCNP@Entering?5IndexPage?6?$AA@ 0000000000026b28     WebServer:Index.obj
 0002:000048e0       ??_C@_1M@EENNDIOJ@?$AAI?$AAn?$AAd?$AAe?$AAx?$AA?$AA@ 0000000000026b40     WebServer:Index.obj
 0002:000048f0       ??_C@_0GO@COEPGHIH@?$DMh1?$DOUEFI?5Web?5Server?$DM?1h1?$DO?$AN?6?$DMtable@ 0000000000026b50     WebServer:Index.obj
 0002:00004960       ??_C@_0CC@JPICKEIC@?$DMtr?$DO?$DMtd?$DO?$DMa?5target?$DN?$CC_blank?$CC?5href?$DN@ 0000000000026bc0     WebServer:Index.obj
 0002:00004988       ??_C@_0O@DKABCJFE@?$DM?1a?$DO?$DM?1td?$DO?$DMtd?$DO?$AA@ 0000000000026be8     WebServer:Index.obj
 0002:00004998       ??_C@_0L@GJFOGDPC@?$DM?1table?$DO?$AN?6?$AA@ 0000000000026bf8     WebServer:Index.obj
 0002:000049a8       ??_C@_0BP@PNCNKDPB@Exiting?5IndexPage?0?5Status?3?5?$CFr?6?$AA@ 0000000000026c08     WebServer:Index.obj
 0002:000049c8       ??_C@_0BE@LFCJMNJL@Entering?5HelloPage?6?$AA@ 0000000000026c28     WebServer:Hello.obj
 0002:000049e0       ??_C@_0GF@IDAMOGPH@?$DMh1?$DOHello?5World?$DM?1h1?$DO?$AN?6?$DMp?$DO?$AN?6?5?5Thi@ 0000000000026c40     WebServer:Hello.obj
 0002:00004a48       ??_C@_0BP@GCFHJGKG@Exiting?5HelloPage?0?5Status?3?5?$CFr?6?$AA@ 0000000000026ca8     WebServer:Hello.obj
 0002:00004a68       ??_C@_0BP@LDOAGINJ@Entering?5DxeServicesTablePage?6?$AA@ 0000000000026cc8     WebServer:DxeServicesTable.obj
 0002:00004a88       ??_C@_0P@BNFHECNI@AddMemorySpace?$AA@ 0000000000026ce8     WebServer:DxeServicesTable.obj
 0002:00004a98       ??_C@_0BE@HDLGPMDK@AllocateMemorySpace?$AA@ 0000000000026cf8     WebServer:DxeServicesTable.obj
 0002:00004ab0       ??_C@_0BA@MGJDGGCP@FreeMemorySpace?$AA@ 0000000000026d10     WebServer:DxeServicesTable.obj
 0002:00004ac0       ??_C@_0BC@LENJLKHK@RemoveMemorySpace?$AA@ 0000000000026d20     WebServer:DxeServicesTable.obj
 0002:00004ad8       ??_C@_0BJ@NPNAEOMM@GetMemorySpaceDescriptor?$AA@ 0000000000026d38     WebServer:DxeServicesTable.obj
 0002:00004af8       ??_C@_0BJ@MCEDDKKB@SetMemorySpaceAttributes?$AA@ 0000000000026d58     WebServer:DxeServicesTable.obj
 0002:00004b18       ??_C@_0BC@NEHDJMBM@GetMemorySpaceMap?$AA@ 0000000000026d78     WebServer:DxeServicesTable.obj
 0002:00004b30       ??_C@_0L@LDFIPJDP@AddIoSpace?$AA@ 0000000000026d90     WebServer:DxeServicesTable.obj
 0002:00004b40       ??_C@_0BA@NFJHDNAB@AllocateIoSpace?$AA@ 0000000000026da0     WebServer:DxeServicesTable.obj
 0002:00004b50       ??_C@_0M@DFGFMOMM@FreeIoSpace?$AA@ 0000000000026db0     WebServer:DxeServicesTable.obj
 0002:00004b60       ??_C@_0O@IKOKNLMI@RemoveIoSpace?$AA@ 0000000000026dc0     WebServer:DxeServicesTable.obj
 0002:00004b70       ??_C@_0BF@GFPPDGFM@GetIoSpaceDescriptor?$AA@ 0000000000026dd0     WebServer:DxeServicesTable.obj
 0002:00004b88       ??_C@_0O@KJOBAGOC@GetIoSpaceMap?$AA@ 0000000000026de8     WebServer:DxeServicesTable.obj
 0002:00004b98       ??_C@_08CEDEDIFN@Dispatch?$AA@ 0000000000026df8     WebServer:DxeServicesTable.obj
 0002:00004ba8       ??_C@_08IFDJIBFE@Schedule?$AA@ 0000000000026e08     WebServer:DxeServicesTable.obj
 0002:00004bb4       ??_C@_05BLDFJNEH@Trust?$AA@ 0000000000026e14     WebServer:DxeServicesTable.obj
 0002:00004bc0       ??_C@_0BG@EJCKIBCP@ProcessFirmwareVolume?$AA@ 0000000000026e20     WebServer:DxeServicesTable.obj
 0002:00004bd8       ??_C@_0CK@LJEDPIJP@Exiting?5DxeServicesTablePage?0?5St@ 0000000000026e38     WebServer:DxeServicesTable.obj
 0002:00004c08       ??_C@_0BD@JAGJGM@Entering?5ExitPage?6?$AA@ 0000000000026e68     WebServer:Exit.obj
 0002:00004c20       ??_C@_19NAPFLIBB@?$AAE?$AAx?$AAi?$AAt?$AA?$AA@ 0000000000026e80     WebServer:Exit.obj
 0002:00004c30       ??_C@_0EC@BMKIDFPE@?$DMh1?$DOExit?$DM?1h1?$DO?$AN?6?$DMp?$DO?$AN?6?5?5Exiting?5th@ 0000000000026e90     WebServer:Exit.obj
 0002:00004c78       ??_C@_0BO@DAFBDMAO@Exiting?5ExitPage?0?5Status?3?5?$CFr?6?$AA@ 0000000000026ed8     WebServer:Exit.obj
 0002:00004c98       ??_C@_0BK@DAOAAMNO@Entering?5DhcpOptionsPage?6?$AA@ 0000000000026ef8     WebServer:DhcpOptions.obj
 0002:00004cb4       ??_C@_04MHPCBGFD@?$DMh1?$DO?$AA@ 0000000000026f14     WebServer:DhcpOptions.obj
 0002:00004cc0       ??_C@_07OLGPMHJL@?$DM?1h1?$DO?$AN?6?$AA@ 0000000000026f20     WebServer:DhcpOptions.obj
 0002:00004cc8       ??_C@_0BA@EJKAMEJP@DHCP?5not?5in?5use?$AA@ 0000000000026f28     WebServer:DhcpOptions.obj
 0002:00004cd8       ??_C@_0CF@ICNCKCHA@Failed?5to?5open?5gEfiDhcp4Protocol@ 0000000000026f38     WebServer:DhcpOptions.obj
 0002:00004d00       ??_C@_0BJ@IJALKKIH@Failed?5to?5get?5DHCP4?5mode?$AA@ 0000000000026f60     WebServer:DhcpOptions.obj
 0002:00004d20       ??_C@_0CM@KDHDDABP@No?5DHCP?5reply?5received?$CB?$DMbr?1?$DODHCP@ 0000000000026f80     WebServer:DhcpOptions.obj
 0002:00004d50       ??_C@_0CF@JDFLDFOF@Exiting?5DhcpOptionsPage?0?5Status?3@ 0000000000026fb0     WebServer:DhcpOptions.obj
 0002:00004d78       ??_C@_0BF@EPEDGCAE@Entering?5HandlePage?6?$AA@ 0000000000026fd8     WebServer:Handles.obj
 0002:00004d90       ??_C@_1CA@NJDFBAHD@?$AAH?$AAa?$AAn?$AAd?$AAl?$AAe?$AA?5?$AAD?$AAa?$AAt?$AAa?$AAb?$AAa?$AAs?$AAe?$AA?$AA@ 0000000000026ff0     WebServer:Handles.obj
 0002:00004db0       ??_C@_0HD@IIOGMNIH@?$DMh1?$DOHandle?5Database?$DM?1h1?$DO?$AN?6?$DMtable@ 0000000000027010     WebServer:Handles.obj
 0002:00004e28       ??_C@_0BB@IJNDHFHC@?$DMtr?$DO?$DMtd?$DO?$DMcode?$DO0x?$AA@ 0000000000027088     WebServer:Handles.obj
 0002:00004e40       ??_C@_0BJ@MMCOCEBF@?$DM?1code?$DO?$DM?1td?$DO?$DMtd?$DO?$DMcode?$DO?$AN?6?$AA@ 00000000000270a0     WebServer:Handles.obj
 0002:00004e60       ??_C@_0CA@FDNPOFFP@Exiting?5HandlePage?0?5Status?3?5?$CFr?6?$AA@ 00000000000270c0     WebServer:Handles.obj
 0002:00004e80       ??_C@_0N@KGEOMBDA@Non?9existent?$AA@ 00000000000270e0     WebServer:MemoryMap.obj
 0002:00004e90       ??_C@_0BC@IKJIKCO@Memory?5Mapped?5I?1O?$AA@ 00000000000270f0     WebServer:MemoryMap.obj
 0002:00004ea8       ??_C@_0BI@MPNHDPLI@Entering?5MemoryMapPage?6?$AA@ 0000000000027108     WebServer:MemoryMap.obj
 0002:00004ec0       ??_C@_0JO@OGGBCAFM@?$DMh1?$DOMemory?5Map?$DM?1h1?$DO?$AN?6?$DMtable?$DO?$AN?6?5?5@ 0000000000027120     WebServer:MemoryMap.obj
 0002:00004f60       ??_C@_0BN@FIBELKJO@?$DMtr?$DO?$DMtd?5align?$DN?$CCright?$CC?$DO?$DMcode?$DO?$AA@ 00000000000271c0     WebServer:MemoryMap.obj
 0002:00004f80       ??_C@_0CH@DEEALMNJ@?$DM?1code?$DO?$DM?1td?$DO?$DMtd?5align?$DN?$CCright?$CC?$DO?$DMc@ 00000000000271e0     WebServer:MemoryMap.obj
 0002:00004fa8       ??_C@_0BB@EGABKKBE@?$DM?1code?$DO?$DM?1td?$DO?$DMtd?$DO?$AA@ 0000000000027208     WebServer:MemoryMap.obj
 0002:00004fc0       ??_C@_07BDIJHMJM@Runtime?$AA@ 0000000000027220     WebServer:MemoryMap.obj
 0002:00004fc8       ??_C@_02KEGNLNML@?0?5?$AA@ 0000000000027228     WebServer:MemoryMap.obj
 0002:00004fd0       ??_C@_0L@JNJJGPNF@No?5Execute?$AA@ 0000000000027230     WebServer:MemoryMap.obj
 0002:00004fe0       ??_C@_07NKDHFNFN@No?5Read?$AA@ 0000000000027240     WebServer:MemoryMap.obj
 0002:00004fe8       ??_C@_08FGBFNEEI@No?5Write?$AA@ 0000000000027248     WebServer:MemoryMap.obj
 0002:00004ff4       ??_C@_03NNLKFHKK@UCE?$AA@  0000000000027254     WebServer:MemoryMap.obj
 0002:00004ff8       ??_C@_0L@FMIIEBKK@Write?5Back?$AA@ 0000000000027258     WebServer:MemoryMap.obj
 0002:00005008       ??_C@_0O@HAPFMLJJ@Write?5Through?$AA@ 0000000000027268     WebServer:MemoryMap.obj
 0002:00005018       ??_C@_0BA@GACHDDDP@Write?5Combining?$AA@ 0000000000027278     WebServer:MemoryMap.obj
 0002:00005028       ??_C@_08PCCJKCHP@Uncached?$AA@ 0000000000027288     WebServer:MemoryMap.obj
 0002:00005038       ??_C@_0L@MLCIMCIJ@?$DM?1td?$DO?$DM?1tr?$DO?$AA@ 0000000000027298     WebServer:MemoryMap.obj
 0002:00005048       ??_C@_0CD@NEOIFEEG@Exiting?5MemoryMapPage?0?5Status?3?5?$CF@ 00000000000272a8     WebServer:MemoryMap.obj
 0002:00005070       ??_C@_0BH@HIOJKHEH@Entering?5FirmwarePage?6?$AA@ 00000000000272d0     WebServer:Firmware.obj
 0002:00005088       ??_C@_06LGGLFMPE@Vendor?$AA@ 00000000000272e8     WebServer:Firmware.obj
 0002:00005090       ??_C@_0CC@FKIGHGAM@Exiting?5FirmwarePage?0?5Status?3?5?$CFr@ 00000000000272f0     WebServer:Firmware.obj
 0002:000050b8       ??_C@_0BJ@BOPLOIMO@Entering?5EfiTableHeader?6?$AA@ 0000000000027318     WebServer:SystemTable.obj
 0002:000050d8       ??_C@_0O@PBNFBJKB@Hdr?4Signature?$AA@ 0000000000027338     WebServer:SystemTable.obj
 0002:000050e8       ??_C@_0N@OPMOOAJD@Hdr?4Revision?$AA@ 0000000000027348     WebServer:SystemTable.obj
 0002:000050f8       ??_C@_0P@DAGODGLP@Hdr?4HeaderSize?$AA@ 0000000000027358     WebServer:SystemTable.obj
 0002:00005108       ??_C@_07BKIKLNFM@Hdr?4CRC?$AA@ 0000000000027368     WebServer:SystemTable.obj
 0002:00005110       ??_C@_0N@IFGAMGK@Hdr?4Reserved?$AA@ 0000000000027370     WebServer:SystemTable.obj
 0002:00005120       ??_C@_0CE@LIGKHFPM@Exiting?5EfiTableHeader?0?5Status?3?5@ 0000000000027380     WebServer:SystemTable.obj
 0002:00005148       ??_C@_0BK@EFPCJFEN@Entering?5RowDecimalValue?6?$AA@ 00000000000273a8     WebServer:SystemTable.obj
 0002:00005168       ??_C@_0CF@LDCPHNJH@Exiting?5RowDecimalValue?0?5Status?3@ 00000000000273c8     WebServer:SystemTable.obj
 0002:00005190       ??_C@_0BG@FGPBCIAL@Entering?5RowHexValue?6?$AA@ 00000000000273f0     WebServer:SystemTable.obj
 0002:000051a8       ??_C@_0CB@NHPGPJNN@Exiting?5RowHexValue?0?5Status?3?5?$CFr?6@ 0000000000027408     WebServer:SystemTable.obj
 0002:000051d0       ??_C@_0BF@DPEDBJKF@Entering?5RowPointer?6?$AA@ 0000000000027430     WebServer:SystemTable.obj
 0002:000051e8       ??_C@_0CA@JNCMALEK@Exiting?5RowPointer?0?5Status?3?5?$CFr?6?$AA@ 0000000000027448     WebServer:SystemTable.obj
 0002:00005208       ??_C@_0BG@JINDIKFJ@Entering?5RowRevision?6?$AA@ 0000000000027468     WebServer:SystemTable.obj
 0002:00005220       ??_C@_0CB@JFAKDFPA@Exiting?5RowRevision?0?5Status?3?5?$CFr?6@ 0000000000027480     WebServer:SystemTable.obj
 0002:00005248       ??_C@_0BL@PECMGJPG@Entering?5RowUnicodeString?6?$AA@ 00000000000274a8     WebServer:SystemTable.obj
 0002:00005268       ??_C@_0CG@GMNKGJND@Exiting?5RowUnicodeString?0?5Status@ 00000000000274c8     WebServer:SystemTable.obj
 0002:00005290       ??_C@_0BG@ODHEKKPC@Entering?5TableHeader?6?$AA@ 00000000000274f0     WebServer:SystemTable.obj
 0002:000052a8       ??_C@_04LBPDBBJF@?3?50x?$AA@ 0000000000027508     WebServer:SystemTable.obj
 0002:000052b0       ??_C@_0FL@BFEEGODD@?$DM?1h1?$DO?$AN?6?$DMtable?5border?$DN?$CC1?$CC?$DO?$AN?6?5?5?$DMtr@ 0000000000027510     WebServer:SystemTable.obj
 0002:00005310       ??_C@_0CB@CDIAOGJB@Exiting?5TableHeader?0?5Status?3?5?$CFr?6@ 0000000000027570     WebServer:SystemTable.obj
 0002:00005338       ??_C@_0BH@LDJHKBCG@Entering?5TableTrailer?6?$AA@ 0000000000027598     WebServer:SystemTable.obj
 0002:00005350       ??_C@_0CC@NDNGLEJG@Exiting?5TableTrailer?0?5Status?3?5?$CFr@ 00000000000275b0     WebServer:SystemTable.obj
 0002:00005378       ??_C@_0BK@CLBLBBIP@Entering?5SystemTablePage?6?$AA@ 00000000000275d8     WebServer:SystemTable.obj
 0002:00005398       ??_C@_0P@PFGJJGBA@FirmwareVendor?$AA@ 00000000000275f8     WebServer:SystemTable.obj
 0002:000053a8       ??_C@_0BB@HMBACBBL@FirmwareRevision?$AA@ 0000000000027608     WebServer:SystemTable.obj
 0002:000053c0       ??_C@_0BA@LNOHGGGH@ConsoleInHandle?$AA@ 0000000000027620     WebServer:SystemTable.obj
 0002:000053d0       ??_C@_05IDFPLGFE@ConIn?$AA@ 0000000000027630     WebServer:SystemTable.obj
 0002:000053d8       ??_C@_0BB@BBKOKDPN@ConsoleOutHandle?$AA@ 0000000000027638     WebServer:SystemTable.obj
 0002:000053ec       ??_C@_06BCMOGFOE@ConOut?$AA@ 000000000002764c     WebServer:SystemTable.obj
 0002:000053f8       ??_C@_0BE@BMGNICIN@StandardErrorHandle?$AA@ 0000000000027658     WebServer:SystemTable.obj
 0002:0000540c       ??_C@_06GKBJECLE@StdErr?$AA@ 000000000002766c     WebServer:SystemTable.obj
 0002:00005418       ??_C@_0BA@MPPPCBDO@RuntimeServices?$AA@ 0000000000027678     WebServer:SystemTable.obj
 0002:00005428       ??_C@_0N@MJPFLLGF@BootServices?$AA@ 0000000000027688     WebServer:SystemTable.obj
 0002:00005438       ??_C@_0BF@PMOCOGBH@NumberOfTableEntries?$AA@ 0000000000027698     WebServer:SystemTable.obj
 0002:00005450       ??_C@_0BD@IHKFIEDD@ConfigurationTable?$AA@ 00000000000276b0     WebServer:SystemTable.obj
 0002:00005468       ??_C@_0CF@JHNOABII@Exiting?5SystemTablePage?0?5Status?3@ 00000000000276c8     WebServer:SystemTable.obj
 0002:00005490       ??_C@_1CI@KKEGABAC@?$AAg?$AAE?$AAf?$AAi?$AAA?$AAc?$AAp?$AAi?$AA1?$AA0?$AAT?$AAa?$AAb?$AAl?$AAe?$AAG?$AAu?$AAi?$AAd?$AA?$AA@ 00000000000276f0     WebServer:ConfigurationTable.obj
 0002:000054b8       ??_C@_1CE@JOHLNOOO@?$AAg?$AAE?$AAf?$AAi?$AAA?$AAc?$AAp?$AAi?$AAT?$AAa?$AAb?$AAl?$AAe?$AAG?$AAu?$AAi?$AAd?$AA?$AA@ 0000000000027718     WebServer:ConfigurationTable.obj
 0002:000054e0       ??_C@_1DI@DMCPKED@?$AAg?$AAE?$AAf?$AAi?$AAD?$AAe?$AAb?$AAu?$AAg?$AAI?$AAm?$AAa?$AAg?$AAe?$AAI?$AAn?$AAf?$AAo?$AAT?$AAa?$AAb?$AAl?$AAe?$AAG?$AAu?$AAi?$AAd?$AA?$AA@ 0000000000027740     WebServer:ConfigurationTable.obj
 0002:00005518       ??_C@_1DC@MOPHKLPA@?$AAg?$AAE?$AAf?$AAi?$AAD?$AAx?$AAe?$AAS?$AAe?$AAr?$AAv?$AAi?$AAc?$AAe?$AAs?$AAT?$AAa?$AAb?$AAl?$AAe?$AAG?$AAu?$AAi?$AAd?$AA?$AA@ 0000000000027778     WebServer:ConfigurationTable.obj
 0002:00005550       ??_C@_1CA@BMOHADNE@?$AAg?$AAE?$AAf?$AAi?$AAH?$AAo?$AAb?$AAL?$AAi?$AAs?$AAt?$AAG?$AAu?$AAi?$AAd?$AA?$AA@ 00000000000277b0     WebServer:ConfigurationTable.obj
 0002:00005570       ??_C@_1DM@NHIHIFEH@?$AAg?$AAE?$AAf?$AAi?$AAM?$AAe?$AAm?$AAo?$AAr?$AAy?$AAT?$AAy?$AAp?$AAe?$AAI?$AAn?$AAf?$AAo?$AAr?$AAm?$AAa?$AAt?$AAi?$AAo?$AAn?$AAG?$AAu?$AAi?$AAd?$AA?$AA@ 00000000000277d0     WebServer:ConfigurationTable.obj
 0002:000055b0       ??_C@_1FA@KDLGBADN@?$AAg?$AAL?$AAo?$AAa?$AAd?$AAF?$AAi?$AAx?$AAe?$AAd?$AAA?$AAd?$AAd?$AAr?$AAe?$AAs?$AAs?$AAC?$AAo?$AAn?$AAf?$AAi?$AAg?$AAu?$AAr?$AAa?$AAt?$AAi?$AAo?$AAn?$AAT?$AAa@ 0000000000027810     WebServer:ConfigurationTable.obj
 0002:00005600       ??_C@_0BC@FHNKEBKO@Entering?5RowGuid?6?$AA@ 0000000000027860     WebServer:ConfigurationTable.obj
 0002:00005620       ??_C@_0FD@LCHJABHH@?$DMbr?1?$DO?$DMa?5target?$DN?$CC_blank?$CC?5href?$DN?$CCht@ 0000000000027880     WebServer:ConfigurationTable.obj
 0002:00005678       ??_C@_08JCPPNMLC@Network?5?$AA@ 00000000000278d8     WebServer:ConfigurationTable.obj
 0002:00005688       ??_C@_09IIKJDHO@Standard?5?$AA@ 00000000000278e8     WebServer:ConfigurationTable.obj
 0002:00005698       ??_C@_08FGFOPDPO@Version?5?$AA@ 00000000000278f8     WebServer:ConfigurationTable.obj
 0002:000056a8       ??_C@_0M@OHMOLKJM@MAC?5address?$AA@ 0000000000027908     WebServer:ConfigurationTable.obj
 0002:000056b8       ??_C@_0N@HIFMIBEO@DCE?5Security?$AA@ 0000000000027918     WebServer:ConfigurationTable.obj
 0002:000056c8       ??_C@_08LHEANHJJ@MD5?5hash?$AA@ 0000000000027928     WebServer:ConfigurationTable.obj
 0002:000056d4       ??_C@_06BEOPDEGP@Random?$AA@ 0000000000027934     WebServer:ConfigurationTable.obj
 0002:000056e0       ??_C@_0L@ILCAOCDN@SHA?91?5hash?$AA@ 0000000000027940     WebServer:ConfigurationTable.obj
 0002:000056f0       ??_C@_0O@EGEOIDHO@Microsoft?5COM?$AA@ 0000000000027950     WebServer:ConfigurationTable.obj
 0002:00005700       ??_C@_0BN@DLOIEHDH@Exiting?5RowGuid?0?5Status?3?5?$CFr?6?$AA@ 0000000000027960     WebServer:ConfigurationTable.obj
 0002:00005720       ??_C@_0CB@IIGCPNMF@Entering?5ConfigurationTablePage?6@ 0000000000027980     WebServer:ConfigurationTable.obj
 0002:00005748       ??_C@_1CK@EABJNLFH@?$AAC?$AAo?$AAn?$AAf?$AAi?$AAg?$AAu?$AAr?$AAa?$AAt?$AAi?$AAo?$AAn?$AA?5?$AAT?$AAa?$AAb?$AAl?$AAe?$AAs?$AA?$AA@ 00000000000279a8     WebServer:ConfigurationTable.obj
 0002:00005778       ??_C@_07DPKILMKI@Entries?$AA@ 00000000000279d8     WebServer:ConfigurationTable.obj
 0002:00005780       ??_C@_0L@DIAMHIAK@VendorGuid?$AA@ 00000000000279e0     WebServer:ConfigurationTable.obj
 0002:00005790       ??_C@_0M@DBFHONEK@VendorTable?$AA@ 00000000000279f0     WebServer:ConfigurationTable.obj
 0002:000057a0       ??_C@_0CM@MJOIMDPF@Exiting?5ConfigurationTablePage?0?5@ 0000000000027a00     WebServer:ConfigurationTable.obj
 0002:000057d0       mGuidName                  0000000000027a30     WebServer:ConfigurationTable.obj
 0002:00005878       ??_C@_0BE@NNBMDNBL@Entering?5PortsPage?6?$AA@ 0000000000027ad8     WebServer:Ports.obj
 0002:00005890       ??_C@_1M@JPPBOKCJ@?$AAP?$AAo?$AAr?$AAt?$AAs?$AA?$AA@ 0000000000027af0     WebServer:Ports.obj
 0002:000058a0       ??_C@_0BM@PNKMKPFD@?$DMh1?$DOWeb?9Server?5Ports?$DM?1h1?$DO?$AN?6?$AA@ 0000000000027b00     WebServer:Ports.obj
 0002:000058c0       ??_C@_0BB@BFHDJCFJ@?$DMa?5href?$DN?$CChttp?3?1?1?$AA@ 0000000000027b20     WebServer:Ports.obj
 0002:000058d8       ??_C@_0BB@EIMADGNG@?$CC?$DOTcp4?$DM?1a?$DO?$DMbr?$DO?$AN?6?$AA@ 0000000000027b38     WebServer:Ports.obj
 0002:000058f0       ??_C@_0BB@KEPLKIEJ@?$CC?$DOTcp6?$DM?1a?$DO?$DMbr?$DO?$AN?6?$AA@ 0000000000027b50     WebServer:Ports.obj
 0002:00005908       ??_C@_0BP@OCDCPEOK@Exiting?5PortsPage?0?5Status?3?5?$CFr?6?$AA@ 0000000000027b68     WebServer:Ports.obj
 0002:00005928       ??_C@_0BA@LNEDDFNB@Write?5Protected?$AA@ 0000000000027b88     WebServer:Mtrr.obj
 0002:00005938       ??_C@_09LKKCEDPE@Writeback?$AA@ 0000000000027b98     WebServer:Mtrr.obj
 0002:00005948       ??_C@_0CB@EGNLPJLG@?5?5?$DMtr?$DO?$DMtd?5align?$DN?$CCright?$CC?$DO?$DMcode?$DO0x@ 0000000000027ba8     WebServer:Mtrr.obj
 0002:00005970       ??_C@_0CC@CBAPGNHI@Entering?5MemoryTypeRegistersPage@ 0000000000027bd0     WebServer:Mtrr.obj
 0002:00005998       ??_C@_0CH@PHGPJPGD@?$DMh1?$DOMemory?5Type?5Range?5Registers?$DM@ 0000000000027bf8     WebServer:Mtrr.obj
 0002:000059c0       ??_C@_0DE@NDNDJFJO@?$DMp?$DOMemory?5Type?5Range?5Registers?5a@ 0000000000027c20     WebServer:Mtrr.obj
 0002:000059f8       ??_C@_0BC@HCMECDHB@?$DMp?$DOCapabilities?3?5?$AA@ 0000000000027c58     WebServer:Mtrr.obj
 0002:00005a0c       ??_C@_06CJLNAGBC@?$DMbr?$DO?$AN?6?$AA@ 0000000000027c6c     WebServer:Mtrr.obj
 0002:00005a18       ??_C@_0L@KBMNEDIF@Def?5Type?3?5?$AA@ 0000000000027c78     WebServer:Mtrr.obj
 0002:00005a28       ??_C@_08NGGCAPMB@?0?5MTRRs?5?$AA@ 0000000000027c88     WebServer:Mtrr.obj
 0002:00005a38       ??_C@_07DOAOMMKG@Enabled?$AA@ 0000000000027c98     WebServer:Mtrr.obj
 0002:00005a40       ??_C@_08JGILNPHN@Disabled?$AA@ 0000000000027ca0     WebServer:Mtrr.obj
 0002:00005a50       ??_C@_0P@FJBKDCFI@?0?5Fixed?5MTRRs?5?$AA@ 0000000000027cb0     WebServer:Mtrr.obj
 0002:00005a60       ??_C@_06OALLEMMA@?$DM?1p?$DO?$AN?6?$AA@ 0000000000027cc0     WebServer:Mtrr.obj
 0002:00005a68       ??_C@_0CB@FDJPCGE@?$DMp?$DOAll?5memory?5is?5uncached?$CB?$DM?1p?$DO?$AN?6@ 0000000000027cc8     WebServer:Mtrr.obj
 0002:00005a90       ??_C@_0IN@HODLBKNI@?$DMh2?$DOFixed?5MTRRs?$DM?1h2?$DO?$AN?6?$DMtable?$DO?$AN?6?5@ 0000000000027cf0     WebServer:Mtrr.obj
 0002:00005b20       ??_C@_0L@HGLGNDKK@?5?5?$DMtr?$DO?$DMtd?$DO?$AA@ 0000000000027d80     WebServer:Mtrr.obj
 0002:00005b30       ??_C@_0CA@CIHCDONL@?$DM?1td?$DO?$DMtd?5align?$DN?$CCright?$CC?$DO?$DMcode?$DO0x?$AA@ 0000000000027d90     WebServer:Mtrr.obj
 0002:00005b50       ??_C@_0GH@GJFINHLH@?$DMtable?$DO?$AN?6?5?5?$DMtr?$DO?$DMth?5align?$DN?$CCright?$CC@ 0000000000027db0     WebServer:Mtrr.obj
 0002:00005bc0       ??_C@_0KK@LEFGCKBB@?$DMh2?$DOVariable?5MTRRs?$DM?1h2?$DO?$AN?6?$DMtable?$DO@ 0000000000027e20     WebServer:Mtrr.obj
 0002:00005c70       ??_C@_0CF@PHPBNIKJ@?$DM?1code?$DO?$DM?1td?$DO?$DMtd?5align?$DN?$CCright?$CC?$DO?$DMc@ 0000000000027ed0     WebServer:Mtrr.obj
 0002:00005c98       ??_C@_07DJMIGIHO@Invalid?$AA@ 0000000000027ef8     WebServer:Mtrr.obj
 0002:00005ca0       ??_C@_0CN@IMKIEFAJ@Exiting?5MemoryTypeRegistersPage?0@ 0000000000027f00     WebServer:Mtrr.obj
 0002:00005cd0       ??_C@_0CE@EIOJDLHD@Entering?5RuntimeSservicesTablePa@ 0000000000027f30     WebServer:RuntimeServicesTable.obj
 0002:00005cf8       ??_C@_07CDIANBOE@GetTime?$AA@ 0000000000027f58     WebServer:RuntimeServicesTable.obj
 0002:00005d00       ??_C@_07NLHBOODF@SetTime?$AA@ 0000000000027f60     WebServer:RuntimeServicesTable.obj
 0002:00005d08       ??_C@_0O@HBHHPKNO@GetWakeupTime?$AA@ 0000000000027f68     WebServer:RuntimeServicesTable.obj
 0002:00005d18       ??_C@_0O@OGJEJKJ@SetWakeupTime?$AA@ 0000000000027f78     WebServer:RuntimeServicesTable.obj
 0002:00005d28       ??_C@_0BF@OGPAAEOO@SetVirtualAddressMap?$AA@ 0000000000027f88     WebServer:RuntimeServicesTable.obj
 0002:00005d40       ??_C@_0P@POJIKEDP@ConvertPointer?$AA@ 0000000000027fa0     WebServer:RuntimeServicesTable.obj
 0002:00005d50       ??_C@_0M@DLMPLDON@GetVariable?$AA@ 0000000000027fb0     WebServer:RuntimeServicesTable.obj
 0002:00005d60       ??_C@_0BE@LGDNOGHM@GetNextVariableName?$AA@ 0000000000027fc0     WebServer:RuntimeServicesTable.obj
 0002:00005d78       ??_C@_0M@DENBGFGO@SetVariable?$AA@ 0000000000027fd8     WebServer:RuntimeServicesTable.obj
 0002:00005d88       ??_C@_0BK@ODOGCEGI@GetNextHighNonotonicCount?$AA@ 0000000000027fe8     WebServer:RuntimeServicesTable.obj
 0002:00005da8       ??_C@_0M@KMAJLMLF@ResetSystem?$AA@ 0000000000028008     WebServer:RuntimeServicesTable.obj
 0002:00005db8       ??_C@_0O@FOGFEIED@UpdateCapsule?$AA@ 0000000000028018     WebServer:RuntimeServicesTable.obj
 0002:00005dc8       ??_C@_0BJ@LLKADFJ@QueryCapsuleCapabilities?$AA@ 0000000000028028     WebServer:RuntimeServicesTable.obj
 0002:00005de8       ??_C@_0BC@KGIBADJF@QueryVariableInfo?$AA@ 0000000000028048     WebServer:RuntimeServicesTable.obj
 0002:00005e00       ??_C@_0CP@FKIDOOGJ@Exiting?5RuntimeSservicesTablePag@ 0000000000028060     WebServer:RuntimeServicesTable.obj
 0002:00005e30       year_lengths               0000000000028090     LibTime:Time.obj
 0002:00005e40       mon_lengths                00000000000280a0     LibTime:Time.obj
 0002:00005ea0       ??_C@_0BA@NFHJAOCJ@?0M4?41?40?0M10?45?40?$AA@ 0000000000028100     LibTime:ZoneProc.obj
 0002:00005eb0       ??_C@_02CLFPBFFP@TZ?$AA@   0000000000028110     LibTime:ZoneProc.obj
 0002:00005eb8       wildabbr                   0000000000028118     LibTime:ZoneProc.obj
 0002:00005ec4       gmt                        0000000000028124     LibTime:ZoneProc.obj
 0002:00005ec8       ??_C@_0CI@BKHCEFMF@?$CILength?5?$DO?50x007F?$CJ?5?$CG?$CG?5?$CILength?5?$DM?$DN?5@ 0000000000028128     LibLocale:multibyte_Utf8.obj
 0002:00005ef0       ??_C@_0P@CCFDOHOB@ProcessOneByte?$AA@ 0000000000028150     LibLocale:multibyte_Utf8.obj
 0002:00005f00       ??_C@_0DK@GDOMIPKJ@g?3?2uefi_edk2_practice?2StdLib?2Lib@ 0000000000028160     LibLocale:multibyte_Utf8.obj
 0002:00005f40       ??_C@_0CI@NHCOAOJN@?$CILength?5?$DO?50x07FF?$CJ?5?$CG?$CG?5?$CILength?5?$DM?$DN?5@ 00000000000281a0     LibLocale:multibyte_Utf8.obj
 0002:00005f68       ??_C@_0CK@ECFFLHAE@?$CILength?5?$DO?50xFFFF?$CJ?5?$CG?$CG?5?$CILength?5?$DM?$DN?5@ 00000000000281c8     LibLocale:multibyte_Utf8.obj
 0002:000060a0       ??_C@_15KKOHIOBF@?$AA?2?$AA?3?$AA?$AA@ 0000000000028300     DevUtility:Path.obj
 0002:000060a8       ??_C@_03OEIAHPBN@INF?$AA@  0000000000028308     LibStdio:vfprintf.obj
 0002:000060ac       ??_C@_03OJHLLCGB@inf?$AA@  000000000002830c     LibStdio:vfprintf.obj
 0002:000060b0       ??_C@_03LKNCIKJB@NAN?$AA@  0000000000028310     LibStdio:vfprintf.obj
 0002:000060b4       ??_C@_03LHCJEHON@nan?$AA@  0000000000028314     LibStdio:vfprintf.obj
 0002:000060b8       ??_C@_06OJHGLDPL@?$CInull?$CJ?$AA@ 0000000000028318     LibStdio:vfprintf.obj
 0002:000060f0       ??_C@_0N@KJMLEBIL@Head?5?$CB?$DN?5NULL?$AA@ 0000000000028350     LibStdLib:Malloc.obj
 0002:00006100       ??_C@_06GLDDLHNF@malloc?$AA@ 0000000000028360     LibStdLib:Malloc.obj
 0002:00006108       ??_C@_0DC@NMCJNOCJ@g?3?2uefi_edk2_practice?2StdLib?2Lib@ 0000000000028368     LibStdLib:Malloc.obj
 0002:0000613c       ??_C@_04LIAPHEDB@free?$AA@ 000000000002839c     LibStdLib:Malloc.obj
 0002:00006148       ??_C@_07EOOHGPEI@realloc?$AA@ 00000000000283a8     LibStdLib:Malloc.obj
 0002:00006150       ??_C@_07PBILKAFL@Success?$AA@ 00000000000283b0     BasePrintLib:PrintLibInternal.obj
 0002:00006158       ??_C@_0BG@CFJMNNJK@Warning?5Unknown?5Glyph?$AA@ 00000000000283b8     BasePrintLib:PrintLibInternal.obj
 0002:00006170       ??_C@_0BH@GKKCJEPJ@Warning?5Delete?5Failure?$AA@ 00000000000283d0     BasePrintLib:PrintLibInternal.obj
 0002:00006188       ??_C@_0BG@ECIJMOED@Warning?5Write?5Failure?$AA@ 00000000000283e8     BasePrintLib:PrintLibInternal.obj
 0002:000061a0       ??_C@_0BJ@ODIPDGHB@Warning?5Buffer?5Too?5Small?$AA@ 0000000000028400     BasePrintLib:PrintLibInternal.obj
 0002:000061c0       ??_C@_0BD@IFJNJCCO@Warning?5Stale?5Data?$AA@ 0000000000028420     BasePrintLib:PrintLibInternal.obj
 0002:000061d8       ??_C@_0L@PLPBEPPC@Load?5Error?$AA@ 0000000000028438     BasePrintLib:PrintLibInternal.obj
 0002:000061e8       ??_C@_0BC@HOFHKGJN@Invalid?5Parameter?$AA@ 0000000000028448     BasePrintLib:PrintLibInternal.obj
 0002:00006200       ??_C@_0M@BEECMOIL@Unsupported?$AA@ 0000000000028460     BasePrintLib:PrintLibInternal.obj
 0002:00006210       ??_C@_0BA@FLNMPMCF@Bad?5Buffer?5Size?$AA@ 0000000000028470     BasePrintLib:PrintLibInternal.obj
 0002:00006220       ??_C@_0BB@EGELJFOB@Buffer?5Too?5Small?$AA@ 0000000000028480     BasePrintLib:PrintLibInternal.obj
 0002:00006238       ??_C@_09NKFGCIPN@Not?5Ready?$AA@ 0000000000028498     BasePrintLib:PrintLibInternal.obj
 0002:00006248       ??_C@_0N@HHEABDHO@Device?5Error?$AA@ 00000000000284a8     BasePrintLib:PrintLibInternal.obj
 0002:00006258       ??_C@_0BB@GOILNEAA@Out?5of?5Resources?$AA@ 00000000000284b8     BasePrintLib:PrintLibInternal.obj
 0002:00006270       ??_C@_0P@EIOJGIF@Volume?5Corrupt?$AA@ 00000000000284d0     BasePrintLib:PrintLibInternal.obj
 0002:00006280       ??_C@_0M@HDLEPOFA@Volume?5Full?$AA@ 00000000000284e0     BasePrintLib:PrintLibInternal.obj
 0002:00006290       ??_C@_08KEGAJDNN@No?5Media?$AA@ 00000000000284f0     BasePrintLib:PrintLibInternal.obj
 0002:000062a0       ??_C@_0O@JNCJKCCD@Media?5changed?$AA@ 0000000000028500     BasePrintLib:PrintLibInternal.obj
 0002:000062b0       ??_C@_09CFCBFJND@Not?5Found?$AA@ 0000000000028510     BasePrintLib:PrintLibInternal.obj
 0002:000062c0       ??_C@_0O@NFHOBIDO@Access?5Denied?$AA@ 0000000000028520     BasePrintLib:PrintLibInternal.obj
 0002:000062d0       ??_C@_0M@ENKCBFEP@No?5Response?$AA@ 0000000000028530     BasePrintLib:PrintLibInternal.obj
 0002:000062e0       ??_C@_0L@IFPBNFC@No?5mapping?$AA@ 0000000000028540     BasePrintLib:PrintLibInternal.obj
 0002:000062f0       ??_C@_08PAFJCNGP@Time?5out?$AA@ 0000000000028550     BasePrintLib:PrintLibInternal.obj
 0002:00006300       ??_C@_0M@DCJFAFHJ@Not?5started?$AA@ 0000000000028560     BasePrintLib:PrintLibInternal.obj
 0002:00006310       ??_C@_0BA@IGIBFFPH@Already?5started?$AA@ 0000000000028570     BasePrintLib:PrintLibInternal.obj
 0002:00006320       ??_C@_07LCKDCBKK@Aborted?$AA@ 0000000000028580     BasePrintLib:PrintLibInternal.obj
 0002:00006328       ??_C@_0L@LKIFCMNO@ICMP?5Error?$AA@ 0000000000028588     BasePrintLib:PrintLibInternal.obj
 0002:00006338       ??_C@_0L@DJKNJKHM@TFTP?5Error?$AA@ 0000000000028598     BasePrintLib:PrintLibInternal.obj
 0002:00006348       ??_C@_0P@NCJHBCLM@Protocol?5Error?$AA@ 00000000000285a8     BasePrintLib:PrintLibInternal.obj
 0002:00006358       ??_C@_0BF@EHOBGFMI@Incompatible?5Version?$AA@ 00000000000285b8     BasePrintLib:PrintLibInternal.obj
 0002:00006370       ??_C@_0BD@KHMPCIOG@Security?5Violation?$AA@ 00000000000285d0     BasePrintLib:PrintLibInternal.obj
 0002:00006388       ??_C@_09BOMAGJEG@CRC?5Error?$AA@ 00000000000285e8     BasePrintLib:PrintLibInternal.obj
 0002:00006398       ??_C@_0N@JEJDHPO@End?5of?5Media?$AA@ 00000000000285f8     BasePrintLib:PrintLibInternal.obj
 0002:000063a8       ??_C@_0O@NMJOLAMF@Reserved?5?$CI29?$CJ?$AA@ 0000000000028608     BasePrintLib:PrintLibInternal.obj
 0002:000063b8       ??_C@_0O@GLPDOMCP@Reserved?5?$CI30?$CJ?$AA@ 0000000000028618     BasePrintLib:PrintLibInternal.obj
 0002:000063c8       ??_C@_0M@FKGOBENP@End?5of?5File?$AA@ 0000000000028628     BasePrintLib:PrintLibInternal.obj
 0002:000063d8       ??_C@_0BB@KFJAMCOC@Invalid?5Language?$AA@ 0000000000028638     BasePrintLib:PrintLibInternal.obj
 0002:000063f0       ??_C@_0BB@MFGDFIJM@Compromised?5Data?$AA@ 0000000000028650     BasePrintLib:PrintLibInternal.obj
 0002:00006408       ??_C@_0O@MLOLIMFM@?$DMnull?5string?$DO?$AA@ 0000000000028668     BasePrintLib:PrintLibInternal.obj
 0002:00006418       ??_C@_0M@BJJDNPHK@?$DMnull?5guid?$DO?$AA@ 0000000000028678     BasePrintLib:PrintLibInternal.obj
 0002:00006428       ??_C@_0DB@PMLHLBMO@?$CF08x?9?$CF04x?9?$CF04x?9?$CF02x?$CF02x?9?$CF02x?$CF02x@ 0000000000028688     BasePrintLib:PrintLibInternal.obj
 0002:00006460       ??_C@_0M@LHGBCIKM@?$DMnull?5time?$DO?$AA@ 00000000000286c0     BasePrintLib:PrintLibInternal.obj
 0002:00006470       ??_C@_0BK@FCPKCIDD@?$CF02d?1?$CF02d?1?$CF04d?5?5?$CF02d?3?$CF02d?$AA@ 00000000000286d0     BasePrintLib:PrintLibInternal.obj
 0002:0000648c       ??_C@_04JIMNDDED@?$CF08X?$AA@ 00000000000286ec     BasePrintLib:PrintLibInternal.obj
 0002:00006494       ??_C@_02PCIJFNDE@?$AN?6?$AA@ 00000000000286f4     BasePrintLib:PrintLibInternal.obj
 0002:00006498       ??_C@_01LIIJDEN@?$AN?$AA@  00000000000286f8     BasePrintLib:PrintLibInternal.obj
 0002:000064a0       mStatusString              0000000000028700     BasePrintLib:PrintLibInternal.obj
 0002:000065e0       mHexStr                    0000000000028840     BasePrintLib:PrintLibInternal.obj
 0002:000065f0       ??_C@_0CL@CALHJIEG@Assertion?5failed?3?5?$CI?$CFs?$CJ?0?5file?5?$CFs?0@ 0000000000028850     LibC:assert.obj
 0002:00006620       ??_C@_0DI@IOHIAJDA@Assertion?5failed?3?5?$CI?$CFs?$CJ?0?5file?5?$CFs?0@ 0000000000028880     LibC:assert.obj
 0002:00006660       ??_C@_0O@IDFELCHE@RowDelta?5?$DO?$DN?50?$AA@ 00000000000288c0     LibIIO:IIOutilities.obj
 0002:00006670       ??_C@_0BA@HPMMKBFI@IIO_CursorDelta?$AA@ 00000000000288d0     LibIIO:IIOutilities.obj
 0002:00006680       ??_C@_0EE@PCGPCLLK@g?3?2uefi_edk2_practice?2StdLib?2Lib@ 00000000000288e0     LibIIO:IIOutilities.obj
 0002:000066c8       ??_C@_0BH@MAAHKCPC@String?5?$CB?$DN?5?$CI?$CIvoid?5?$CK?$CJ?50?$CJ?$AA@ 0000000000028928     UefiHiiLib:HiiString.obj
 0002:000066df       ??_C@_00CNPNBAHC@?$AA@     000000000002893f     UefiHiiLib:HiiString.obj
 0002:000066e0       SocketOperations           0000000000028940     BsdSocketLib:socket.obj
 0002:00006750       mMtrrLibFixedMtrrTable     00000000000289b0     MtrrLib:MtrrLib.obj
 0002:000067d8       ??_C@_1CI@LEOIGPHJ@?$AA?6?$AAC?$AAa?$AAu?$AAg?$AAh?$AAt?$AA?5?$AAs?$AAi?$AAg?$AAn?$AAa?$AAl?$AA?5?$AA?$CF?$AAd?$AA?4?$AA?6?$AA?$AA@ 0000000000028a38     LibSignal:Signal.obj
 0002:00006800       ??_C@_08KEBCLIFP@Infinity?$AA@ 0000000000028a60     LibGdtoa:dtoa.obj
 0002:0000680c       ??_C@_03ICJPMMHB@NaN?$AA@  0000000000028a6c     LibGdtoa:dtoa.obj
 0002:00006810       ??_C@_01GBGANLPD@0?$AA@    0000000000028a70     LibGdtoa:dtoa.obj
 0002:00006820       __bigtens_D2A              0000000000028a80     LibGdtoa:misc.obj
 0002:00006850       __tens_D2A                 0000000000028ab0     LibGdtoa:misc.obj
 0002:00006920       _DefaultMonetaryLocale     0000000000028b80     LibLocale:_def_monetary.obj
 0002:00006968       _DefaultNumericLocale      0000000000028bc8     LibLocale:_def_numeric.obj
 0002:00006980       ??_C@_0N@DFGEMFMI@Self?5?$CB?$DN?5NULL?$AA@ 0000000000028be0     LibContainer:Fifo.obj
 0002:00006990       ??_C@_0DL@KIFDCNBL@g?3?2uefi_edk2_practice?2StdLib?2Lib@ 0000000000028bf0     LibContainer:Fifo.obj
 0002:000069d0       ??_C@_0N@KPNBOCLA@FIFO_IsEmpty?$AA@ 0000000000028c30     LibContainer:Fifo.obj
 0002:000069e0       ??_C@_0M@LHAKPCNM@FIFO_IsFull?$AA@ 0000000000028c40     LibContainer:Fifo.obj
 0002:000069f0       ??_C@_0N@LBHOADMO@FIFO_Enqueue?$AA@ 0000000000028c50     LibContainer:Fifo.obj
 0002:00006a00       ??_C@_0BB@EKHBJDKA@pElement?5?$CB?$DN?5NULL?$AA@ 0000000000028c60     LibContainer:Fifo.obj
 0002:00006a18       ??_C@_0N@HPNDFHKK@FIFO_Dequeue?$AA@ 0000000000028c78     LibContainer:Fifo.obj
 0002:00006a28       ??_C@_0N@CJLEDFNJ@FIFO_GetRDex?$AA@ 0000000000028c88     LibContainer:Fifo.obj
 0002:00006a38       ??_C@_0N@OBFELKKJ@FIFO_GetWDex?$AA@ 0000000000028c98     LibContainer:Fifo.obj
 0002:00006a48       ??_C@_0M@BLMNFLCB@FIFO_Delete?$AA@ 0000000000028ca8     LibContainer:Fifo.obj
 0002:00006a58       ??_C@_0L@GCDDJGHC@FIFO_Flush?$AA@ 0000000000028cb8     LibContainer:Fifo.obj
 0002:00006a68       ??_C@_0O@CEMJFGGE@FIFO_Truncate?$AA@ 0000000000028cc8     LibContainer:Fifo.obj
 0002:00006a78       __real@0000000000000000    0000000000028cd8     LibGdtoa:dtoa.obj
 0002:00006a80       __real@3fc68a288b60c8b3    0000000000028ce0     LibGdtoa:dtoa.obj
 0002:00006a88       __real@3fd287a7636f4361    0000000000028ce8     LibGdtoa:dtoa.obj
 0002:00006a90       __real@3fd34413509f79fb    0000000000028cf0     LibGdtoa:dtoa.obj
 0002:00006a98       __real@3fe0000000000000    0000000000028cf8     LibGdtoa:dtoa.obj
 0002:00006aa0       __real@3ff0000000000000    0000000000028d00     LibGdtoa:dtoa.obj
 0002:00006aa8       __real@3ff8000000000000    0000000000028d08     LibGdtoa:dtoa.obj
 0002:00006ab0       __real@4014000000000000    0000000000028d10     LibGdtoa:dtoa.obj
 0002:00006ab8       __real@401c000000000000    0000000000028d18     LibGdtoa:dtoa.obj
 0002:00006ac0       __real@4024000000000000    0000000000028d20     LibGdtoa:dtoa.obj
 0002:00006ac8       __real@75154fdd7f73bf3c    0000000000028d28     LibGdtoa:dtoa.obj
 0002:00006ad0       __real@c014000000000000    0000000000028d30     LibGdtoa:dtoa.obj
 0002:00006ae0       __xmm@80000000000000008000000000000000 0000000000028d40     LibGdtoa:dtoa.obj
 0002:00006c20       gST                        0000000000028e80     UefiBootServicesTableLib:UefiBootServicesTableLib.obj
 0002:00006c28       gImageHandle               0000000000028e88     UefiBootServicesTableLib:UefiBootServicesTableLib.obj
 0002:00006c30       gBS                        0000000000028e90     UefiBootServicesTableLib:UefiBootServicesTableLib.obj
 0002:00006c38       EFIerrno                   0000000000028e98     LibC:errno.obj
 0002:00006c40       errno                      0000000000028ea0     LibC:errno.obj
 0002:00006c48       __wchar_bitmap             0000000000028ea8     LibWchar:ConsDecons.obj
 0002:00006c50       gRT                        0000000000028eb0     UefiRuntimeServicesTableLib:UefiRuntimeServicesTableLib.obj
 0002:00006c58       gHiiString                 0000000000028eb8     UefiHiiServicesLib:UefiHiiServicesLib.obj
 0002:00006c60       gHiiFont                   0000000000028ec0     UefiHiiServicesLib:UefiHiiServicesLib.obj
 0002:00006c68       gHiiConfigRouting          0000000000028ec8     UefiHiiServicesLib:UefiHiiServicesLib.obj
 0002:00006c70       gHiiImage                  0000000000028ed0     UefiHiiServicesLib:UefiHiiServicesLib.obj
 0002:00006c78       gHiiDatabase               0000000000028ed8     UefiHiiServicesLib:UefiHiiServicesLib.obj
 0002:00006c80       gDS                        0000000000028ee0     DxeServicesTableLib:DxeServicesTableLib.obj
 0002:00006c88       lclptr                     0000000000028ee8     LibTime:ZoneProc.obj
 0002:00006c90       gmtptr                     0000000000028ef0     LibTime:ZoneProc.obj
 0002:00006cb8       daDefaultDevice            0000000000028f18     DevUtility:DevGenisis.obj
 0002:000089f0       __dtoa_result_D2A          000000000002ac50     <common>
 0002:00008a00       __sFext                    000000000002ac60     <common>
 0002:00008af0       __sdidinit                 000000000002ad50     <common>
 0002:00008b00       mWebServer                 000000000002ad60     <common>
 0002:00008b40       mEslLayer                  000000000002ada0     <common>
 0002:00008b88       gEfiShellParametersProtocol 000000000002ade8     <common>
 0002:00008ba0       FileFunctionMap            000000000002ae00     <common>
 0002:00008bf0       mEfiShellEnvironment2      000000000002ae50     <common>
 0002:00008bf8       mEfiShellInterface         000000000002ae58     <common>
 0002:00008c00       gEfiShellProtocol          000000000002ae60     <common>
 0002:00008c08       mUnicodeCollationProtocol  000000000002ae68     <common>
 0002:00008c10       mEfiShellEnvironment2Handle 000000000002ae70     <common>
 0002:00008c18       __wchar_bitmap_size        000000000002ae78     <common>
 0002:00008c20       gMD                        000000000002ae80     <common>

 entry point at        0001:000001d8

 Static symbols

 0001:000000bf       AsmCpuid.0                 000000000000035f     BaseLib:CpuId.obj
 0001:000000c4       AsmCpuid.1                 0000000000000364     BaseLib:CpuId.obj
 0001:000000cb       AsmCpuid.2                 000000000000036b     BaseLib:CpuId.obj
 0001:000000d4       AsmCpuid.3                 0000000000000374     BaseLib:CpuId.obj
 0001:00001000       da_ConSeek                 00000000000012a0 f   DevConsole:daConsole.obj
 0001:00001070       da_ConWrite                0000000000001310 f   DevConsole:daConsole.obj
 0001:00001118       da_ConRawRead              00000000000013b8 f   DevConsole:daConsole.obj
 0001:000011c8       da_ConRead                 0000000000001468 f   DevConsole:daConsole.obj
 0001:000012c0       da_ConStat                 0000000000001560 f   DevConsole:daConsole.obj
 0001:0000139c       da_ConIoctl                000000000000163c f   DevConsole:daConsole.obj
 0001:00001420       da_ConFlush                00000000000016c0 f   DevConsole:daConsole.obj
 0001:000014d4       da_ConClose                0000000000001774 f   DevConsole:daConsole.obj
 0001:00001538       da_ConPoll                 00000000000017d8 f   DevConsole:daConsole.obj
 0001:0000242c       da_ShellClose              00000000000026cc f   DevShell:daShell.obj
 0001:00002454       da_ShellDelete             00000000000026f4 f   DevShell:daShell.obj
 0001:00002484       da_ShellSeek               0000000000002724 f   DevShell:daShell.obj
 0001:00002568       da_ShellMkdir              0000000000002808 f   DevShell:daShell.obj
 0001:000026a4       da_ShellRead               0000000000002944 f   DevShell:daShell.obj
 0001:0000273c       da_ShellWrite              00000000000029dc f   DevShell:daShell.obj
 0001:000027e8       da_ShellStat               0000000000002a88 f   DevShell:daShell.obj
 0001:000028c0       da_ShellIoctl              0000000000002b60 f   DevShell:daShell.obj
 0001:00002c58       da_ShellPoll               0000000000002ef8 f   DevShell:daShell.obj
 0001:00002c8c       da_ShellRename             0000000000002f2c f   DevShell:daShell.obj
 0001:00002e00       da_ShellRmdir              00000000000030a0 f   DevShell:daShell.obj
 0001:000152a0       timesub                    0000000000015540 f   LibTime:Time.obj
 0001:00015598       normalize_overflow         0000000000015838 f   LibTime:Time.obj
 0001:000155f0       time2sub                   0000000000015890 f   LibTime:Time.obj
 0001:00015a6c       time1                      0000000000015d0c f   LibTime:Time.obj
 0001:00015d88       localsub                   0000000000016028 f   LibTime:Time.obj
 0001:00015f8c       settzname                  000000000001622c f   LibTime:ZoneProc.obj
 0001:0001603c       getnum                     00000000000162dc f   LibTime:ZoneProc.obj
 0001:0001607c       getsecs                    000000000001631c f   LibTime:ZoneProc.obj
 0001:00016124       getrule                    00000000000163c4 f   LibTime:ZoneProc.obj
 0001:0001621c       transtime                  00000000000164bc f   LibTime:ZoneProc.obj
 0001:0001641c       tzparse                    00000000000166bc f   LibTime:ZoneProc.obj
 0001:00016a48       ProcessOneByte             0000000000016ce8 f   LibLocale:multibyte_Utf8.obj
 0001:00017cc0       __sbprintf                 0000000000017f60 f   LibStdio:vfprintf.obj
 0001:00017d94       __ultoa                    0000000000018034 f   LibStdio:vfprintf.obj
 0001:00017ed4       __ujtoa                    0000000000018174 f   LibStdio:vfprintf.obj
 0001:00018060       __wcsconv                  0000000000018300 f   LibStdio:vfprintf.obj
 0001:0001a204       __find_arguments           000000000001a4a4 f   LibStdio:vfprintf.obj
 0001:0001ac04       __grow_type_table          000000000001aea4 f   LibStdio:vfprintf.obj
 0001:0001acc0       cvt                        000000000001af60 f   LibStdio:vfprintf.obj
 0001:0001adf4       exponent                   000000000001b094 f   LibStdio:vfprintf.obj
 0001:0001ca08       BuildBitmap                000000000001cca8 f   LibWchar:Searching.obj
 0001:0001ca74       IIO_Read                   000000000001cd14 f   LibIIO:IIO.obj
 0001:0001cb8c       IIO_Write                  000000000001ce2c f   LibIIO:IIO.obj
 0001:0001cdb0       IIO_Echo                   000000000001d050 f   LibIIO:IIO.obj
 0001:0001cf64       IIO_Delete                 000000000001d204 f   LibIIO:IIO.obj
 0001:0001fc00       __wctoint                  000000000001fea0 f   LibLocale:wcstol.obj
 0001:0001ffc0       FIFO_NumInQueue            0000000000020260 f   LibContainer:Fifo.obj
 0001:0001ffec       FIFO_FreeSpace             000000000002028c f   LibContainer:Fifo.obj
 0001:0002001c       FIFO_IsEmpty               00000000000202bc f   LibContainer:Fifo.obj
 0001:0002005c       FIFO_IsFull                00000000000202fc f   LibContainer:Fifo.obj
 0001:000200b8       FIFO_Enqueue               0000000000020358 f   LibContainer:Fifo.obj
 0001:000201c8       FIFO_Dequeue               0000000000020468 f   LibContainer:Fifo.obj
 0001:000202e4       FIFO_Read                  0000000000020584 f   LibContainer:Fifo.obj
 0001:000202ec       FIFO_Copy                  000000000002058c f   LibContainer:Fifo.obj
 0001:000202f4       FIFO_GetRDex               0000000000020594 f   LibContainer:Fifo.obj
 0001:0002032c       FIFO_GetWDex               00000000000205cc f   LibContainer:Fifo.obj
 0001:00020364       FIFO_Delete                0000000000020604 f   LibContainer:Fifo.obj
 0001:000203c0       FIFO_Flush                 0000000000020660 f   LibContainer:Fifo.obj
 0001:00020478       FIFO_Truncate              0000000000020718 f   LibContainer:Fifo.obj
 0002:00000320       ?zeroes@?1??__vfprintf_unlocked@@9@9 0000000000022580     LibStdio:vfprintf.obj
 0002:00000330       ?blanks@?1??__vfprintf_unlocked@@9@9 0000000000022590     LibStdio:vfprintf.obj
 0002:00000538       uglue                      0000000000022798     LibStdio:findfp.obj
 0002:00000568       MemPoolHead                00000000000227c8     LibStdLib:Malloc.obj
 0002:00000578       Spaces                     00000000000227d8     LibIIO:IIOwrite.obj
 0002:000005a0       pmem_next                  0000000000022800     LibGdtoa:misc.obj
 0002:00002110       stdioFlags                 0000000000024370     DevConsole:daConsole.obj
 0002:00002120       stdioNames                 0000000000024380     DevConsole:daConsole.obj
 0002:00005fa0       utf8_code_length           0000000000028200     LibLocale:multibyte_Utf8.obj
 0002:000060c0       ?xdigs_lower@?1??__vfprintf_unlocked@@9@9 0000000000028320     LibStdio:vfprintf.obj
 0002:000060d8       ?xdigs_upper@?1??__vfprintf_unlocked@@9@9 0000000000028338     LibStdio:vfprintf.obj
 0002:00006658       BitMask                    00000000000288b8     LibWchar:Searching.obj
 0002:00006908       ?p05@?1??__pow5mult_D2A@@9@9 0000000000028b68     LibGdtoa:misc.obj
 0002:00006b20       ?errorbuf@?1??strerror@@9@9 0000000000028d80     LibString:Misc.obj
 0002:00006c98       lcl_is_set                 0000000000028ef8     LibTime:ZoneProc.obj
 0002:00006ca0       LocalConvState             0000000000028f00     LibLocale:multibyte_Utf8.obj
 0002:00006cc0       usual                      0000000000028f20     LibStdio:findfp.obj
 0002:000077f0       private_mem                0000000000029a50     LibGdtoa:misc.obj
 0002:000080f0       ConInstanceList            000000000002a350     DevConsole:daConsole.obj
 0002:000080f8       IIO                        000000000002a358     DevConsole:daConsole.obj
 0002:00008100       ConNode                    000000000002a360     DevConsole:daConsole.obj
 0002:00008118       gmt_is_set                 000000000002a378     LibTime:Time.obj
 0002:00008120       lcl_TZname                 000000000002a380     LibTime:ZoneProc.obj
 0002:00008220       usualext                   000000000002a480     LibStdio:findfp.obj
 0002:00008770       ?BufCnt@?1??IIO_GetInChar@@9@9 000000000002a9d0     LibIIO:IIOutilities.obj
 0002:00008778       p5s                        000000000002a9d8     LibGdtoa:misc.obj
 0002:00008780       freelist                   000000000002a9e0     LibGdtoa:misc.obj
 0002:00008990       ?ret@?1??localeconv@@9@9   000000000002abf0     LibLocale:localeconv.obj
 0003:00000000       $pdata$_ModuleEntryPoint   000000000002af20     UefiApplicationEntryPoint:ApplicationEntryPoint.obj
 0003:0000000c       $pdata$ProcessLibraryConstructorList 000000000002af2c     WebServer:AutoGen.obj
 0003:00000018       $pdata$ProcessLibraryDestructorList 000000000002af38     WebServer:AutoGen.obj
 0003:00000024       $pdata$ProcessModuleEntryPointList 000000000002af44     WebServer:AutoGen.obj
 0003:00000030       $pdata$ShellCEntryLib      000000000002af50     UefiShellCEntryLib:UefiShellCEntryLib.obj
 0003:0000003c       $pdata$exitCleanup         000000000002af5c     LibC:Main.obj
 0003:00000048       $pdata$ShellAppMain        000000000002af68     LibC:Main.obj
 0003:00000054       $pdata$__wchar_construct   000000000002af74     LibWchar:ConsDecons.obj
 0003:00000060       $pdata$__wchar_deconstruct 000000000002af80     LibWchar:ConsDecons.obj
 0003:0000006c       $pdata$EfiGetSystemConfigurationTable 000000000002af8c     UefiLib:UefiLib.obj
 0003:00000078       $pdata$EfiGetCurrentTpl    000000000002af98     UefiLib:UefiLib.obj
 0003:00000084       $pdata$InternalPrint       000000000002afa4     UefiLib:UefiLibPrint.obj
 0003:00000090       $pdata$Print               000000000002afb0     UefiLib:UefiLibPrint.obj
 0003:0000009c       $pdata$da_ConSeek          000000000002afbc     DevConsole:daConsole.obj
 0003:000000a8       $pdata$da_ConWrite         000000000002afc8     DevConsole:daConsole.obj
 0003:000000b4       $pdata$da_ConRawRead       000000000002afd4     DevConsole:daConsole.obj
 0003:000000c0       $pdata$da_ConRead          000000000002afe0     DevConsole:daConsole.obj
 0003:000000cc       $pdata$da_ConStat          000000000002afec     DevConsole:daConsole.obj
 0003:000000d8       $pdata$da_ConFlush         000000000002aff8     DevConsole:daConsole.obj
 0003:000000e4       $pdata$da_ConClose         000000000002b004     DevConsole:daConsole.obj
 0003:000000f0       $pdata$da_ConPoll          000000000002b010     DevConsole:daConsole.obj
 0003:000000fc       $pdata$__Cons_construct    000000000002b01c     DevConsole:daConsole.obj
 0003:00000108       $pdata$__Cons_deconstruct  000000000002b028     DevConsole:daConsole.obj
 0003:00000114       $pdata$ShellFindSE2        000000000002b034     UefiShellLib:UefiShellLib.obj
 0003:00000120       $pdata$ShellLibConstructorWorker 000000000002b040     UefiShellLib:UefiShellLib.obj
 0003:0000012c       $pdata$ShellLibDestructor  000000000002b04c     UefiShellLib:UefiShellLib.obj
 0003:00000138       $pdata$ShellOpenFileByDevicePath 000000000002b058     UefiShellLib:UefiShellLib.obj
 0003:00000144       $pdata$ShellOpenFileByName 000000000002b064     UefiShellLib:UefiShellLib.obj
 0003:00000150       $pdata$ShellFindFirstFile  000000000002b070     UefiShellLib:UefiShellLib.obj
 0003:0000015c       $pdata$ShellIsFile         000000000002b07c     UefiShellLib:UefiShellLib.obj
 0003:00000168       $pdata$UefiHiiServicesLibConstructor 000000000002b088     UefiHiiServicesLib:UefiHiiServicesLib.obj
 0003:00000174       $pdata$da_ShellClose       000000000002b094     DevShell:daShell.obj
 0003:00000180       $pdata$da_ShellDelete      000000000002b0a0     DevShell:daShell.obj
 0003:0000018c       $pdata$da_ShellSeek        000000000002b0ac     DevShell:daShell.obj
 0003:00000198       $pdata$da_ShellMkdir       000000000002b0b8     DevShell:daShell.obj
 0003:000001a4       $pdata$da_ShellRead        000000000002b0c4     DevShell:daShell.obj
 0003:000001b0       $pdata$da_ShellWrite       000000000002b0d0     DevShell:daShell.obj
 0003:000001bc       $pdata$da_ShellStat        000000000002b0dc     DevShell:daShell.obj
 0003:000001c8       $pdata$da_ShellIoctl       000000000002b0e8     DevShell:daShell.obj
 0003:000001d4       $pdata$da_ShellOpen        000000000002b0f4     DevShell:daShell.obj
 0003:000001e0       $pdata$da_ShellRename      000000000002b100     DevShell:daShell.obj
 0003:000001ec       $pdata$da_ShellRmdir       000000000002b10c     DevShell:daShell.obj
 0003:000001f8       $pdata$__ctor_DevShell     000000000002b118     DevShell:daShell.obj
 0003:00000204       $pdata$__dtor_DevShell     000000000002b124     DevShell:daShell.obj
 0003:00000210       $pdata$EslServiceFreeProtocol 000000000002b130     EfiSocketLib:UseEfiSocketLib.obj
 0003:0000021c       $pdata$EslServiceNetworkConnect 000000000002b13c     EfiSocketLib:UseEfiSocketLib.obj
 0003:00000228       $pdata$EslServiceNetworkDisconnect 000000000002b148     EfiSocketLib:UseEfiSocketLib.obj
 0003:00000234       $pdata$EslServiceConnect   000000000002b154     EfiSocketLib:Service.obj
 0003:00000240       $pdata$EslSocket           000000000002b160     EfiSocketLib:Socket.obj
 0003:0000024c       $pdata$EslSocketAccept     000000000002b16c     EfiSocketLib:Socket.obj
 0003:00000258       $pdata$EslSocketAllocate   000000000002b178     EfiSocketLib:Socket.obj
 0003:00000264       $pdata$EslSocketBind       000000000002b184     EfiSocketLib:Socket.obj
 0003:00000270       $pdata$EslSocketBindTest   000000000002b190     EfiSocketLib:Socket.obj
 0003:0000027c       $pdata$EslSocketClosePoll  000000000002b19c     EfiSocketLib:Socket.obj
 0003:00000288       $pdata$EslSocketCloseStart 000000000002b1a8     EfiSocketLib:Socket.obj
 0003:00000294       $pdata$EslSocketConnect    000000000002b1b4     EfiSocketLib:Socket.obj
 0003:000002a0       $pdata$EslSocketCopyFragmentedBuffer 000000000002b1c0     EfiSocketLib:Socket.obj
 0003:000002ac       $pdata$EslSocketGetLocalAddress 000000000002b1cc     EfiSocketLib:Socket.obj
 0003:000002b8       $pdata$EslSocketGetPeerAddress 000000000002b1d8     EfiSocketLib:Socket.obj
 0003:000002c4       $pdata$EslSocketIoFree     000000000002b1e4     EfiSocketLib:Socket.obj
 0003:000002d0       $pdata$EslSocketIoInit     000000000002b1f0     EfiSocketLib:Socket.obj
 0003:000002dc       $pdata$EslSocketIsConfigured 000000000002b1fc     EfiSocketLib:Socket.obj
 0003:000002e8       $pdata$EslSocketListen     000000000002b208     EfiSocketLib:Socket.obj
 0003:000002f4       $pdata$EslSocketOptionGet  000000000002b214     EfiSocketLib:Socket.obj
 0003:00000300       $pdata$EslSocketOptionSet  000000000002b220     EfiSocketLib:Socket.obj
 0003:0000030c       $pdata$EslSocketPacketAllocate 000000000002b22c     EfiSocketLib:Socket.obj
 0003:00000318       $pdata$EslSocketPoll       000000000002b238     EfiSocketLib:Socket.obj
 0003:00000324       $pdata$EslSocketPortAllocate 000000000002b244     EfiSocketLib:Socket.obj
 0003:00000330       $pdata$EslSocketPortClose  000000000002b250     EfiSocketLib:Socket.obj
 0003:0000033c       $pdata$EslSocketPortCloseComplete 000000000002b25c     EfiSocketLib:Socket.obj
 0003:00000348       $pdata$EslSocketPortCloseRxDone 000000000002b268     EfiSocketLib:Socket.obj
 0003:00000354       $pdata$EslSocketPortCloseStart 000000000002b274     EfiSocketLib:Socket.obj
 0003:00000360       $pdata$EslSocketPortCloseTxDone 000000000002b280     EfiSocketLib:Socket.obj
 0003:0000036c       $pdata$EslSocketReceive    000000000002b28c     EfiSocketLib:Socket.obj
 0003:00000378       $pdata$EslSocketRxComplete 000000000002b298     EfiSocketLib:Socket.obj
 0003:00000384       $pdata$EslSocketRxStart    000000000002b2a4     EfiSocketLib:Socket.obj
 0003:00000390       $pdata$EslSocketShutdown   000000000002b2b0     EfiSocketLib:Socket.obj
 0003:0000039c       $pdata$EslSocketTransmit   000000000002b2bc     EfiSocketLib:Socket.obj
 0003:000003a8       $pdata$EslSocketTxComplete 000000000002b2c8     EfiSocketLib:Socket.obj
 0003:000003b4       $pdata$EslSocketTxStart    000000000002b2d4     EfiSocketLib:Socket.obj
 0003:000003c0       $pdata$EslTcp6Accept       000000000002b2e0     EfiSocketLib:Tcp6.obj
 0003:000003cc       $pdata$EslTcp6ConnectComplete 000000000002b2ec     EfiSocketLib:Tcp6.obj
 0003:000003d8       $pdata$EslTcp6ConnectStart 000000000002b2f8     EfiSocketLib:Tcp6.obj
 0003:000003e4       $pdata$EslTcp6Listen       000000000002b304     EfiSocketLib:Tcp6.obj
 0003:000003f0       $pdata$EslTcp6ListenComplete 000000000002b310     EfiSocketLib:Tcp6.obj
 0003:000003fc       $pdata$EslTcp6LocalAddressGet 000000000002b31c     EfiSocketLib:Tcp6.obj
 0003:00000408       $pdata$EslTcp6LocalAddressSet 000000000002b328     EfiSocketLib:Tcp6.obj
 0003:00000414       $pdata$EslTcp6PortAllocate 000000000002b334     EfiSocketLib:Tcp6.obj
 0003:00000420       $pdata$EslTcp6PortClose    000000000002b340     EfiSocketLib:Tcp6.obj
 0003:0000042c       $pdata$EslTcp6Receive      000000000002b34c     EfiSocketLib:Tcp6.obj
 0003:00000438       $pdata$EslTcp6RemoteAddressGet 000000000002b358     EfiSocketLib:Tcp6.obj
 0003:00000444       $pdata$EslTcp6RemoteAddressSet 000000000002b364     EfiSocketLib:Tcp6.obj
 0003:00000450       $pdata$EslTcp6TxBuffer     000000000002b370     EfiSocketLib:Tcp6.obj
 0003:00000450       $pdata$EslTcp4TxBuffer     000000000002b370     EfiSocketLib:Tcp4.obj
 0003:0000045c       $pdata$EslTcp6TxComplete   000000000002b37c     EfiSocketLib:Tcp6.obj
 0003:0000045c       $pdata$EslTcp4TxComplete   000000000002b37c     EfiSocketLib:Tcp4.obj
 0003:00000468       $pdata$EslTcp4TxOobComplete 000000000002b388     EfiSocketLib:Tcp4.obj
 0003:00000468       $pdata$EslTcp6TxOobComplete 000000000002b388     EfiSocketLib:Tcp6.obj
 0003:00000474       $pdata$EslTcp6VerifyLocalIpAddress 000000000002b394     EfiSocketLib:Tcp6.obj
 0003:00000480       $pdata$EslIp4Receive       000000000002b3a0     EfiSocketLib:Ip4.obj
 0003:0000048c       $pdata$EslIp4SocketIsConfigured 000000000002b3ac     EfiSocketLib:Ip4.obj
 0003:00000498       $pdata$EslIp4TxBuffer      000000000002b3b8     EfiSocketLib:Ip4.obj
 0003:000004a4       $pdata$EslUdp6TxComplete   000000000002b3c4     EfiSocketLib:Udp6.obj
 0003:000004a4       $pdata$EslIp4TxComplete    000000000002b3c4     EfiSocketLib:Ip4.obj
 0003:000004b0       $pdata$EslIp4VerifyLocalIpAddress 000000000002b3d0     EfiSocketLib:Ip4.obj
 0003:000004bc       $pdata$EslTcp4Accept       000000000002b3dc     EfiSocketLib:Tcp4.obj
 0003:000004c8       $pdata$EslTcp4ConnectComplete 000000000002b3e8     EfiSocketLib:Tcp4.obj
 0003:000004d4       $pdata$EslTcp4ConnectStart 000000000002b3f4     EfiSocketLib:Tcp4.obj
 0003:000004e0       $pdata$EslTcp4Listen       000000000002b400     EfiSocketLib:Tcp4.obj
 0003:000004ec       $pdata$EslTcp4ListenComplete 000000000002b40c     EfiSocketLib:Tcp4.obj
 0003:000004f8       $pdata$EslTcp4LocalAddressGet 000000000002b418     EfiSocketLib:Tcp4.obj
 0003:00000504       $pdata$EslTcp4LocalAddressSet 000000000002b424     EfiSocketLib:Tcp4.obj
 0003:00000510       $pdata$EslTcp4PortAllocate 000000000002b430     EfiSocketLib:Tcp4.obj
 0003:0000051c       $pdata$EslTcp4PortClose    000000000002b43c     EfiSocketLib:Tcp4.obj
 0003:00000528       $pdata$EslTcp4Receive      000000000002b448     EfiSocketLib:Tcp4.obj
 0003:00000534       $pdata$EslTcp4RemoteAddressGet 000000000002b454     EfiSocketLib:Tcp4.obj
 0003:00000540       $pdata$EslTcp4RemoteAddressSet 000000000002b460     EfiSocketLib:Tcp4.obj
 0003:0000054c       $pdata$EslTcp4VerifyLocalIpAddress 000000000002b46c     EfiSocketLib:Tcp4.obj
 0003:00000558       $pdata$EslUdp4LocalAddressGet 000000000002b478     EfiSocketLib:Udp4.obj
 0003:00000564       $pdata$EslUdp4LocalAddressSet 000000000002b484     EfiSocketLib:Udp4.obj
 0003:00000570       $pdata$EslUdp4Receive      000000000002b490     EfiSocketLib:Udp4.obj
 0003:0000057c       $pdata$EslUdp4RemoteAddressGet 000000000002b49c     EfiSocketLib:Udp4.obj
 0003:00000588       $pdata$EslUdp4RemoteAddressSet 000000000002b4a8     EfiSocketLib:Udp4.obj
 0003:00000594       $pdata$EslUdp4SocketIsConfigured 000000000002b4b4     EfiSocketLib:Udp4.obj
 0003:000005a0       $pdata$EslUdp4TxBuffer     000000000002b4c0     EfiSocketLib:Udp4.obj
 0003:000005ac       $pdata$EslUdp4TxComplete   000000000002b4cc     EfiSocketLib:Udp4.obj
 0003:000005b8       $pdata$EslUdp4VerifyLocalIpAddress 000000000002b4d8     EfiSocketLib:Udp4.obj
 0003:000005c4       $pdata$EslUdp6LocalAddressGet 000000000002b4e4     EfiSocketLib:Udp6.obj
 0003:000005d0       $pdata$EslUdp6LocalAddressSet 000000000002b4f0     EfiSocketLib:Udp6.obj
 0003:000005dc       $pdata$EslUdp6Receive      000000000002b4fc     EfiSocketLib:Udp6.obj
 0003:000005e8       $pdata$EslUdp6RemoteAddressGet 000000000002b508     EfiSocketLib:Udp6.obj
 0003:000005f4       $pdata$EslUdp6RemoteAddressSet 000000000002b514     EfiSocketLib:Udp6.obj
 0003:00000600       $pdata$EslUdp6SocketIsConfigured 000000000002b520     EfiSocketLib:Udp6.obj
 0003:0000060c       $pdata$EslUdp6TxBuffer     000000000002b52c     EfiSocketLib:Udp6.obj
 0003:00000618       $pdata$EslUdp6VerifyLocalIpAddress 000000000002b538     EfiSocketLib:Udp6.obj
 0003:00000624       $pdata$PortAdd             000000000002b544     WebServer:WebServer.obj
 0003:00000630       $pdata$PortRemove          000000000002b550     WebServer:WebServer.obj
 0003:0000063c       $pdata$PortWork            000000000002b55c     WebServer:WebServer.obj
 0003:00000648       $pdata$SocketPoll          000000000002b568     WebServer:WebServer.obj
 0003:00000654       $pdata$WebServerListen     000000000002b574     WebServer:WebServer.obj
 0003:00000660       $pdata$main                000000000002b580     WebServer:WebServer.obj
 0003:0000066c       $pdata$HttpCharGet         000000000002b58c     WebServer:HTTP.obj
 0003:00000678       $pdata$HttpFlush           000000000002b598     WebServer:HTTP.obj
 0003:00000684       $pdata$HttpMatch           000000000002b5a4     WebServer:HTTP.obj
 0003:00000690       $pdata$HttpPageHeader      000000000002b5b0     WebServer:HTTP.obj
 0003:0000069c       $pdata$HttpPageNotFound    000000000002b5bc     WebServer:HTTP.obj
 0003:000006a8       $pdata$HttpPageTrailer     000000000002b5c8     WebServer:HTTP.obj
 0003:000006b4       $pdata$HttpReplaceSpace    000000000002b5d4     WebServer:HTTP.obj
 0003:000006c0       $pdata$HttpRequest         000000000002b5e0     WebServer:HTTP.obj
 0003:000006cc       $pdata$HttpSend            000000000002b5ec     WebServer:HTTP.obj
 0003:000006d8       $pdata$HttpSendAnsiString  000000000002b5f8     WebServer:HTTP.obj
 0003:000006e4       $pdata$HttpSendByte        000000000002b604     WebServer:HTTP.obj
 0003:000006f0       $pdata$HttpSendCharacter   000000000002b610     WebServer:HTTP.obj
 0003:000006fc       $pdata$HttpSendDump        000000000002b61c     WebServer:HTTP.obj
 0003:00000708       $pdata$HttpSendGuid        000000000002b628     WebServer:HTTP.obj
 0003:00000714       $pdata$HttpSendHexBits     000000000002b634     WebServer:HTTP.obj
 0003:00000720       $pdata$HttpSendHexValue    000000000002b640     WebServer:HTTP.obj
 0003:0000072c       $pdata$HttpSendIp6Value    000000000002b64c     WebServer:HTTP.obj
 0003:00000738       $pdata$HttpSendIpAddress   000000000002b658     WebServer:HTTP.obj
 0003:00000744       $pdata$HttpSendUnicodeString 000000000002b664     WebServer:HTTP.obj
 0003:00000750       $pdata$HttpSendValue       000000000002b670     WebServer:HTTP.obj
 0003:0000075c       $pdata$LocateRsdt          000000000002b67c     WebServer:ACPI.obj
 0003:00000768       $pdata$LocateTable         000000000002b688     WebServer:ACPI.obj
 0003:00000774       $pdata$RowAnsiArray        000000000002b694     WebServer:ACPI.obj
 0003:00000780       $pdata$RowBytes            000000000002b6a0     WebServer:ACPI.obj
 0003:0000078c       $pdata$RowDump             000000000002b6ac     WebServer:ACPI.obj
 0003:00000798       $pdata$RowGenericAddress   000000000002b6b8     WebServer:ACPI.obj
 0003:000007a4       $pdata$SignatureLookup     000000000002b6c4     WebServer:ACPI.obj
 0003:000007b0       $pdata$AcpiApicPage        000000000002b6d0     WebServer:ACPI.obj
 0003:000007bc       $pdata$AcpiBgrtPage        000000000002b6dc     WebServer:ACPI.obj
 0003:000007c8       $pdata$AcpiDsdtPage        000000000002b6e8     WebServer:ACPI.obj
 0003:000007d4       $pdata$AcpiFadtPage        000000000002b6f4     WebServer:ACPI.obj
 0003:000007e0       $pdata$AcpiHpetPage        000000000002b700     WebServer:ACPI.obj
 0003:000007ec       $pdata$AcpiMcfgPage        000000000002b70c     WebServer:ACPI.obj
 0003:000007f8       $pdata$AcpiRsdp10Page      000000000002b718     WebServer:ACPI.obj
 0003:00000804       $pdata$AcpiRsdp30Page      000000000002b724     WebServer:ACPI.obj
 0003:00000810       $pdata$AcpiRsdtPage        000000000002b730     WebServer:ACPI.obj
 0003:0000081c       $pdata$AcpiSsdtPage        000000000002b73c     WebServer:ACPI.obj
 0003:00000828       $pdata$AcpiTcpaPage        000000000002b748     WebServer:ACPI.obj
 0003:00000834       $pdata$AcpiUefiPage        000000000002b754     WebServer:ACPI.obj
 0003:00000840       $pdata$RebootPage          000000000002b760     WebServer:Reboot.obj
 0003:0000084c       $pdata$BootServicesTablePage 000000000002b76c     WebServer:BootServicesTable.obj
 0003:00000858       $pdata$IndexPage           000000000002b778     WebServer:Index.obj
 0003:00000864       $pdata$HelloPage           000000000002b784     WebServer:Hello.obj
 0003:00000870       $pdata$DxeServicesTablePage 000000000002b790     WebServer:DxeServicesTable.obj
 0003:0000087c       $pdata$ExitPage            000000000002b79c     WebServer:Exit.obj
 0003:00000888       $pdata$DhcpOptionsPage     000000000002b7a8     WebServer:DhcpOptions.obj
 0003:00000894       $pdata$HandlePage          000000000002b7b4     WebServer:Handles.obj
 0003:000008a0       $pdata$MemoryMapPage       000000000002b7c0     WebServer:MemoryMap.obj
 0003:000008ac       $pdata$FirmwarePage        000000000002b7cc     WebServer:Firmware.obj
 0003:000008b8       $pdata$EfiTableHeader      000000000002b7d8     WebServer:SystemTable.obj
 0003:000008c4       $pdata$RowDecimalValue     000000000002b7e4     WebServer:SystemTable.obj
 0003:000008d0       $pdata$RowHexValue         000000000002b7f0     WebServer:SystemTable.obj
 0003:000008dc       $pdata$RowPointer          000000000002b7fc     WebServer:SystemTable.obj
 0003:000008e8       $pdata$RowRevision         000000000002b808     WebServer:SystemTable.obj
 0003:000008f4       $pdata$RowUnicodeString    000000000002b814     WebServer:SystemTable.obj
 0003:00000900       $pdata$TableHeader         000000000002b820     WebServer:SystemTable.obj
 0003:0000090c       $pdata$TableTrailer        000000000002b82c     WebServer:SystemTable.obj
 0003:00000918       $pdata$SystemTablePage     000000000002b838     WebServer:SystemTable.obj
 0003:00000924       $pdata$RowGuid             000000000002b844     WebServer:ConfigurationTable.obj
 0003:00000930       $pdata$ConfigurationTablePage 000000000002b850     WebServer:ConfigurationTable.obj
 0003:0000093c       $pdata$PortsPage           000000000002b85c     WebServer:Ports.obj
 0003:00000948       $pdata$MtrrDisplayFixedRow 000000000002b868     WebServer:Mtrr.obj
 0003:00000954       $pdata$MemoryTypeRegistersPage 000000000002b874     WebServer:Mtrr.obj
 0003:00000960       $pdata$RuntimeSservicesTablePage 000000000002b880     WebServer:RuntimeServicesTable.obj
 0003:0000096c       $pdata$timesub             000000000002b88c     LibTime:Time.obj
 0003:00000978       $pdata$normalize_overflow  000000000002b898     LibTime:Time.obj
 0003:00000984       $pdata$time2sub            000000000002b8a4     LibTime:Time.obj
 0003:00000990       $pdata$time1               000000000002b8b0     LibTime:Time.obj
 0003:0000099c       $pdata$time                000000000002b8bc     LibTime:Time.obj
 0003:000009a8       $pdata$gmtsub              000000000002b8c8     LibTime:Time.obj
 0003:000009b4       $pdata$localsub            000000000002b8d4     LibTime:Time.obj
 0003:000009c0       $pdata$Efi2Time            000000000002b8e0     LibTime:TimeEfi.obj
 0003:000009cc       $pdata$Time2Efi            000000000002b8ec     LibTime:TimeEfi.obj
 0003:000009d8       $pdata$getsecs             000000000002b8f8     LibTime:ZoneProc.obj
 0003:000009e4       $pdata$getrule             000000000002b904     LibTime:ZoneProc.obj
 0003:000009f0       $pdata$transtime           000000000002b910     LibTime:ZoneProc.obj
 0003:000009fc       $pdata$tzparse             000000000002b91c     LibTime:ZoneProc.obj
 0003:00000a08       $pdata$tzset               000000000002b928     LibTime:ZoneProc.obj
 0003:00000a14       $pdata$ProcessOneByte      000000000002b934     LibLocale:multibyte_Utf8.obj
 0003:00000a20       $pdata$DecodeOneStateful   000000000002b940     LibLocale:multibyte_Utf8.obj
 0003:00000a2c       $pdata$EstimateWtoM        000000000002b94c     LibLocale:multibyte_Utf8.obj
 0003:00000a38       $pdata$EncodeUtf8          000000000002b958     LibLocale:multibyte_Utf8.obj
 0003:00000a44       $pdata$wcrtomb             000000000002b964     LibLocale:multibyte_Utf8.obj
 0003:00000a50       $pdata$wcsrtombs           000000000002b970     LibLocale:multibyte_Utf8.obj
 0003:00000a5c       $pdata$__DevRegister       000000000002b97c     DevUtility:DevGenisis.obj
 0003:00000a68       $pdata$ClassifyPath        000000000002b988     DevUtility:Path.obj
 0003:00000a74       $pdata$NormalizePath       000000000002b994     DevUtility:Path.obj
 0003:00000a80       $pdata$ParsePath           000000000002b9a0     DevUtility:Path.obj
 0003:00000a8c       $pdata$__DevSearch         000000000002b9ac     DevUtility:DevSearch.obj
 0003:00000a98       $pdata$isatty              000000000002b9b8     LibUefi:SysCalls.obj
 0003:00000aa4       $pdata$close               000000000002b9c4     LibUefi:SysCalls.obj
 0003:00000ab0       $pdata$lseek               000000000002b9d0     LibUefi:SysCalls.obj
 0003:00000abc       $pdata$open                000000000002b9dc     LibUefi:SysCalls.obj
 0003:00000ac8       $pdata$poll                000000000002b9e8     LibUefi:SysCalls.obj
 0003:00000ad4       $pdata$__sbprintf          000000000002b9f4     LibStdio:vfprintf.obj
 0003:00000ae0       $pdata$__ultoa             000000000002ba00     LibStdio:vfprintf.obj
 0003:00000aec       $pdata$__ujtoa             000000000002ba0c     LibStdio:vfprintf.obj
 0003:00000af8       $pdata$__wcsconv           000000000002ba18     LibStdio:vfprintf.obj
 0003:00000b04       $pdata$__vfprintf_unlocked 000000000002ba24     LibStdio:vfprintf.obj
 0003:00000b10       $pdata$__find_arguments    000000000002ba30     LibStdio:vfprintf.obj
 0003:00000b1c       $pdata$__grow_type_table   000000000002ba3c     LibStdio:vfprintf.obj
 0003:00000b28       $pdata$cvt                 000000000002ba48     LibStdio:vfprintf.obj
 0003:00000b34       $pdata$exponent            000000000002ba54     LibStdio:vfprintf.obj
 0003:00000b40       $pdata$__swsetup           000000000002ba60     LibStdio:wsetup.obj
 0003:00000b4c       $pdata$fflush              000000000002ba6c     LibStdio:fflush.obj
 0003:00000b58       $pdata$__sflush            000000000002ba78     LibStdio:fflush.obj
 0003:00000b64       $pdata$__sfvwrite          000000000002ba84     LibStdio:fvwrite.obj
 0003:00000b70       $pdata$__smakebuf          000000000002ba90     LibStdio:makebuf.obj
 0003:00000b7c       $pdata$__swhatbuf          000000000002ba9c     LibStdio:makebuf.obj
 0003:00000b88       $pdata$__sread             000000000002baa8     LibStdio:stdio.obj
 0003:00000b94       $pdata$__swrite            000000000002bab4     LibStdio:stdio.obj
 0003:00000ba0       $pdata$__sseek             000000000002bac0     LibStdio:stdio.obj
 0003:00000bac       $pdata$abort               000000000002bacc     LibStdLib:Environs.obj
 0003:00000bb8       $pdata$exit                000000000002bad8     LibStdLib:Environs.obj
 0003:00000bc4       $pdata$malloc              000000000002bae4     LibStdLib:Malloc.obj
 0003:00000bd0       $pdata$calloc              000000000002baf0     LibStdLib:Malloc.obj
 0003:00000bdc       $pdata$free                000000000002bafc     LibStdLib:Malloc.obj
 0003:00000be8       $pdata$realloc             000000000002bb08     LibStdLib:Malloc.obj
 0003:00000bf4       $pdata$InternalAllocatePool 000000000002bb14     UefiMemoryAllocationLib:MemoryAllocationLib.obj
 0003:00000c00       $pdata$AllocateZeroPool    000000000002bb20     UefiMemoryAllocationLib:MemoryAllocationLib.obj
 0003:00000c0c       $pdata$AllocateCopyPool    000000000002bb2c     UefiMemoryAllocationLib:MemoryAllocationLib.obj
 0003:00000c18       $pdata$AsciiSPrint         000000000002bb38     BasePrintLib:PrintLib.obj
 0003:00000c24       $pdata$BasePrintLibValueToString 000000000002bb44     BasePrintLib:PrintLibInternal.obj
 0003:00000c30       $pdata$BasePrintLibSPrintMarker 000000000002bb50     BasePrintLib:PrintLibInternal.obj
 0003:00000c3c       $pdata$BasePrintLibSPrint  000000000002bb5c     BasePrintLib:PrintLibInternal.obj
 0003:00000c48       $pdata$__assert            000000000002bb68     LibC:assert.obj
 0003:00000c54       $pdata$BuildBitmap         000000000002bb74     LibWchar:Searching.obj
 0003:00000c60       $pdata$IIO_Read            000000000002bb80     LibIIO:IIO.obj
 0003:00000c6c       $pdata$IIO_Write           000000000002bb8c     LibIIO:IIO.obj
 0003:00000c78       $pdata$IIO_Echo            000000000002bb98     LibIIO:IIO.obj
 0003:00000c84       $pdata$IIO_Delete          000000000002bba4     LibIIO:IIO.obj
 0003:00000c90       $pdata$New_cIIO            000000000002bbb0     LibIIO:IIO.obj
 0003:00000c9c       $pdata$IIO_GetDeviceProto  000000000002bbbc     LibIIO:IIOutilities.obj
 0003:00000ca8       $pdata$IIO_GetCursorPosition 000000000002bbc8     LibIIO:IIOutilities.obj
 0003:00000cb4       $pdata$IIO_SetCursorPosition 000000000002bbd4     LibIIO:IIOutilities.obj
 0003:00000cc0       $pdata$IIO_GetOutputSize   000000000002bbe0     LibIIO:IIOutilities.obj
 0003:00000ccc       $pdata$IIO_WriteOne        000000000002bbec     LibIIO:IIOwrite.obj
 0003:00000cd8       $pdata$IIO_EchoOne         000000000002bbf8     LibIIO:IIOecho.obj
 0003:00000ce4       $pdata$IIO_CanonRead       000000000002bc04     LibIIO:CanonRead.obj
 0003:00000cf0       $pdata$FileHandleGetInfo   000000000002bc10     UefiFileHandleLib:UefiFileHandleLib.obj
 0003:00000cfc       $pdata$FileHandleIsDirectory 000000000002bc1c     UefiFileHandleLib:UefiFileHandleLib.obj
 0003:00000d08       $pdata$FileHandleGetSize   000000000002bc28     UefiFileHandleLib:UefiFileHandleLib.obj
 0003:00000d14       $pdata$recv                000000000002bc34     BsdSocketLib:recv.obj
 0003:00000d20       $pdata$BslFdToSocketProtocol 000000000002bc40     BsdSocketLib:socket.obj
 0003:00000d2c       $pdata$BslSocketProtocolToFd 000000000002bc4c     BsdSocketLib:socket.obj
 0003:00000d38       $pdata$socket              000000000002bc58     BsdSocketLib:socket.obj
 0003:00000d44       $pdata$listen              000000000002bc64     BsdSocketLib:listen.obj
 0003:00000d50       $pdata$bind                000000000002bc70     BsdSocketLib:bind.obj
 0003:00000d5c       $pdata$AcceptWork          000000000002bc7c     BsdSocketLib:accept.obj
 0003:00000d68       $pdata$send                000000000002bc88     BsdSocketLib:send.obj
 0003:00000d74       $pdata$getsockname         000000000002bc94     BsdSocketLib:getsockname.obj
 0003:00000d80       $pdata$getpeername         000000000002bca0     BsdSocketLib:getpeername.obj
 0003:00000d8c       $pdata$recvfrom            000000000002bcac     BsdSocketLib:recvfrom.obj
 0003:00000d98       $pdata$BslSocketCloseWork  000000000002bcb8     BsdSocketLib:close.obj
 0003:00000da4       $pdata$BslSocketClose      000000000002bcc4     BsdSocketLib:close.obj
 0003:00000db0       $pdata$BslSocketPoll       000000000002bcd0     BsdSocketLib:poll.obj
 0003:00000dbc       $pdata$BslSocketRead       000000000002bcdc     BsdSocketLib:read.obj
 0003:00000dc8       $pdata$MtrrGetFixedMtrrWorker 000000000002bce8     MtrrLib:MtrrLib.obj
 0003:00000dd4       $pdata$MtrrGetVariableMtrrWorker 000000000002bcf4     MtrrLib:MtrrLib.obj
 0003:00000de0       $pdata$MtrrGetAllMtrrs     000000000002bd00     MtrrLib:MtrrLib.obj
 0003:00000dec       $pdata$IsMtrrSupported     000000000002bd0c     MtrrLib:MtrrLib.obj
 0003:00000df8       $pdata$__dtoa              000000000002bd18     LibGdtoa:dtoa.obj
 0003:00000e04       $pdata$__nrv_alloc_D2A     000000000002bd24     LibGdtoa:dmisc.obj
 0003:00000e10       $pdata$__quorem_D2A        000000000002bd30     LibGdtoa:dmisc.obj
 0003:00000e1c       $pdata$__Balloc_D2A        000000000002bd3c     LibGdtoa:misc.obj
 0003:00000e28       $pdata$__multadd_D2A       000000000002bd48     LibGdtoa:misc.obj
 0003:00000e34       $pdata$__mult_D2A          000000000002bd54     LibGdtoa:misc.obj
 0003:00000e40       $pdata$__pow5mult_D2A      000000000002bd60     LibGdtoa:misc.obj
 0003:00000e4c       $pdata$__lshift_D2A        000000000002bd6c     LibGdtoa:misc.obj
 0003:00000e58       $pdata$__diff_D2A          000000000002bd78     LibGdtoa:misc.obj
 0003:00000e64       $pdata$__d2b_D2A           000000000002bd84     LibGdtoa:misc.obj
 0003:00000e70       $pdata$printf              000000000002bd90     LibStdio:printf.obj
 0003:00000e7c       $pdata$FIFO_IsEmpty        000000000002bd9c     LibContainer:Fifo.obj
 0003:00000e88       $pdata$FIFO_IsFull         000000000002bda8     LibContainer:Fifo.obj
 0003:00000e94       $pdata$FIFO_Enqueue        000000000002bdb4     LibContainer:Fifo.obj
 0003:00000ea0       $pdata$FIFO_Dequeue        000000000002bdc0     LibContainer:Fifo.obj
 0003:00000eac       $pdata$FIFO_GetRDex        000000000002bdcc     LibContainer:Fifo.obj
 0003:00000eb8       $pdata$FIFO_GetWDex        000000000002bdd8     LibContainer:Fifo.obj
 0003:00000ec4       $pdata$FIFO_Delete         000000000002bde4     LibContainer:Fifo.obj
 0003:00000ed0       $pdata$FIFO_Flush          000000000002bdf0     LibContainer:Fifo.obj
 0003:00000edc       $pdata$FIFO_Truncate       000000000002bdfc     LibContainer:Fifo.obj
 0003:00000ee8       $pdata$New_cFIFO           000000000002be08     LibContainer:Fifo.obj
 0003:00000ef4       $pdata$strerror            000000000002be14     LibString:Misc.obj
 0003:00000f00       $pdata$strerror_r          000000000002be20     LibString:Misc.obj
 0003:00000f0c       $pdata$strdup              000000000002be2c     LibString:Copying.obj
 0003:00000f18       $pdata$strncpyX            000000000002be38     LibString:Copying.obj
 0003:00000f24       $pdata$AsciiStrCmp         000000000002be44     BaseLib:String.obj
 0003:00000f30       $pdata$AsciiStrLen         000000000002be50     BaseLib:String.obj
 0003:00000f3c       $pdata$AsciiStrToUnicodeStr 000000000002be5c     BaseLib:String.obj
 0003:00000f48       $pdata$AsciiStrnCpy        000000000002be68     BaseLib:String.obj
 0003:00000f54       $pdata$StrCmp              000000000002be74     BaseLib:String.obj
 0003:00000f60       $pdata$StrLen              000000000002be80     BaseLib:String.obj
 0003:00000f6c       $pdata$StrSize             000000000002be8c     BaseLib:String.obj
 0003:00000f78       $pdata$StrStr              000000000002be98     BaseLib:String.obj
 0003:00000f84       $pdata$StrnCat             000000000002bea4     BaseLib:String.obj
 0003:00000f90       $pdata$StrnCmp             000000000002beb0     BaseLib:String.obj
 0003:00000f9c       $pdata$StrnCpy             000000000002bebc     BaseLib:String.obj
 0003:00000fa8       $pdata$UnicodeStrToAsciiStr 000000000002bec8     BaseLib:String.obj
 0003:00000fb4       $pdata$ReadUnaligned16     000000000002bed4     BaseLib:Unaligned.obj
 0003:00000fc0       $pdata$ReadUnaligned32     000000000002bee0     BaseLib:Unaligned.obj
 0003:00000fcc       $pdata$ReadUnaligned64     000000000002beec     BaseLib:Unaligned.obj
 0003:00000fd8       $pdata$StrnLenS            000000000002bef8     BaseLib:SafeString.obj
 0003:00000fe4       $pdata$GetFirstNode        000000000002bf04     BaseLib:LinkedList.obj
 0003:00000ff0       $pdata$GetNextNode         000000000002bf10     BaseLib:LinkedList.obj
 0003:00000ffc       $pdata$InsertTailList      000000000002bf1c     BaseLib:LinkedList.obj
 0003:00001008       $pdata$InternalBaseLibIsListValid 000000000002bf28     BaseLib:LinkedList.obj
 0003:00001014       $pdata$IsListEmpty         000000000002bf34     BaseLib:LinkedList.obj
 0003:00001020       $pdata$IsNodeInList        000000000002bf40     BaseLib:LinkedList.obj
 0003:0000102c       $pdata$RemoveEntryList     000000000002bf4c     BaseLib:LinkedList.obj
 0003:00001038       $pdata$PathCleanUpDirectories 000000000002bf58     BaseLib:FilePaths.obj
 0003:00001044       $pdata$LShiftU64           000000000002bf64     BaseLib:LShiftU64.obj
 0003:00001050       $pdata$DivU64x32Remainder  000000000002bf70     BaseLib:DivU64x32Remainder.obj
 0003:0000105c       $pdata$InternalAssertJumpBuffer 000000000002bf7c     BaseLib:SetJump.obj
 0003:00001068       $pdata$CopyMem             000000000002bf88     BaseMemoryLib:CopyMemWrapper.obj
 0003:00001074       $pdata$CompareGuid         000000000002bf94     BaseMemoryLib:MemLibGuid.obj
 0003:00001080       $pdata$ZeroMem             000000000002bfa0     BaseMemoryLib:ZeroMemWrapper.obj
 0003:0000108c       $pdata$SetMem              000000000002bfac     BaseMemoryLib:SetMemWrapper.obj
 0003:00001098       $pdata$InternalMemSetMem   000000000002bfb8     BaseMemoryLib:SetMem.obj
 0003:000010a4       $pdata$LongJump            000000000002bfc4     BaseLib:LongJump.obj
 0003:000010b0       $pdata$SetMem16            000000000002bfd0     BaseMemoryLib:SetMem16Wrapper.obj
 0003:000010bc       $pdata$ScanMem8            000000000002bfdc     BaseMemoryLib:ScanMem8Wrapper.obj
 0004:00000000       $unwind$ProcessOneByte     000000000002c000     LibLocale:multibyte_Utf8.obj
 0004:00000000       $unwind$EslServiceFreeProtocol 000000000002c000     EfiSocketLib:UseEfiSocketLib.obj
 0004:00000000       $unwind$EslSocketPortCloseStart 000000000002c000     EfiSocketLib:Socket.obj
 0004:00000000       $unwind$CopyMem            000000000002c000     BaseMemoryLib:CopyMemWrapper.obj
 0004:00000000       $unwind$gmtsub             000000000002c000     LibTime:Time.obj
 0004:00000000       $unwind$StrStr             000000000002c000     BaseLib:String.obj
 0004:00000000       $unwind$SetMem             000000000002c000     BaseMemoryLib:SetMemWrapper.obj
 0004:00000000       $unwind$exitCleanup        000000000002c000     LibC:Main.obj
 0004:00000000       $unwind$SetMem16           000000000002c000     BaseMemoryLib:SetMem16Wrapper.obj
 0004:00000000       $unwind$IIO_SetCursorPosition 000000000002c000     LibIIO:IIOutilities.obj
 0004:00000000       $unwind$EslTcp6Accept      000000000002c000     EfiSocketLib:Tcp6.obj
 0004:00000000       $unwind$FIFO_Flush         000000000002c000     LibContainer:Fifo.obj
 0004:00000000       $unwind$ScanMem8           000000000002c000     BaseMemoryLib:ScanMem8Wrapper.obj
 0004:00000000       $unwind$EslSocketIoFree    000000000002c000     EfiSocketLib:Socket.obj
 0004:00000000       $unwind$da_ConPoll         000000000002c000     DevConsole:daConsole.obj
 0004:00000000       $unwind$getpeername        000000000002c000     BsdSocketLib:getpeername.obj
 0004:00000000       $unwind$__pow5mult_D2A     000000000002c000     LibGdtoa:misc.obj
 0004:00000000       $unwind$EslTcp4Accept      000000000002c000     EfiSocketLib:Tcp4.obj
 0004:00000000       $unwind$StrnLenS           000000000002c000     BaseLib:SafeString.obj
 0004:00000000       $unwind$close              000000000002c000     LibUefi:SysCalls.obj
 0004:00000000       $unwind$DivU64x32Remainder 000000000002c000     BaseLib:DivU64x32Remainder.obj
 0004:00000000       $unwind$__sflush           000000000002c000     LibStdio:fflush.obj
 0004:00000000       $unwind$getsockname        000000000002c000     BsdSocketLib:getsockname.obj
 0004:00000000       $unwind$EslSocketIsConfigured 000000000002c000     EfiSocketLib:Socket.obj
 0004:00000000       $unwind$strdup             000000000002c000     LibString:Copying.obj
 0004:00000000       $unwind$StrLen             000000000002c000     BaseLib:String.obj
 0004:00000000       $unwind$StrCmp             000000000002c000     BaseLib:String.obj
 0004:00000000       $unwind$__nrv_alloc_D2A    000000000002c000     LibGdtoa:dmisc.obj
 0004:00000000       $unwind$__sread            000000000002c000     LibStdio:stdio.obj
 0004:00000000       $unwind$_ModuleEntryPoint  000000000002c000     UefiApplicationEntryPoint:ApplicationEntryPoint.obj
 0004:00000000       $unwind$__swrite           000000000002c000     LibStdio:stdio.obj
 0004:00000000       $unwind$EslSocketBindTest  000000000002c000     EfiSocketLib:Socket.obj
 0004:00000010       $unwind$ProcessLibraryDestructorList 000000000002c010     WebServer:AutoGen.obj
 0004:00000010       $unwind$HttpReplaceSpace   000000000002c010     WebServer:HTTP.obj
 0004:00000010       $unwind$ProcessLibraryConstructorList 000000000002c010     WebServer:AutoGen.obj
 0004:00000018       $unwind$SignatureLookup    000000000002c018     WebServer:ACPI.obj
 0004:00000018       $unwind$ProcessModuleEntryPointList 000000000002c018     WebServer:AutoGen.obj
 0004:00000018       $unwind$HttpCharGet        000000000002c018     WebServer:HTTP.obj
 0004:00000020       $unwind$ShellCEntryLib     000000000002c020     UefiShellCEntryLib:UefiShellCEntryLib.obj
 0004:00000030       $unwind$ShellAppMain       000000000002c030     LibC:Main.obj
 0004:00000048       $unwind$__wchar_deconstruct 000000000002c048     LibWchar:ConsDecons.obj
 0004:00000048       $unwind$BslSocketProtocolToFd 000000000002c048     BsdSocketLib:socket.obj
 0004:00000048       $unwind$strerror           000000000002c048     LibString:Misc.obj
 0004:00000048       $unwind$__wchar_construct  000000000002c048     LibWchar:ConsDecons.obj
 0004:00000048       $unwind$isatty             000000000002c048     LibUefi:SysCalls.obj
 0004:00000048       $unwind$da_ShellClose      000000000002c048     DevShell:daShell.obj
 0004:00000048       $unwind$IIO_GetDeviceProto 000000000002c048     LibIIO:IIOutilities.obj
 0004:00000048       $unwind$abort              000000000002c048     LibStdLib:Environs.obj
 0004:00000048       $unwind$InternalAllocatePool 000000000002c048     UefiMemoryAllocationLib:MemoryAllocationLib.obj
 0004:00000048       $unwind$da_ShellDelete     000000000002c048     DevShell:daShell.obj
 0004:00000048       $unwind$exit               000000000002c048     LibStdLib:Environs.obj
 0004:00000048       $unwind$strerror_r         000000000002c048     LibString:Misc.obj
 0004:00000048       $unwind$BslSocketPoll      000000000002c048     BsdSocketLib:poll.obj
 0004:00000048       $unwind$__dtor_DevShell    000000000002c048     DevShell:daShell.obj
 0004:00000048       $unwind$BslSocketClose     000000000002c048     BsdSocketLib:close.obj
 0004:00000048       $unwind$BslFdToSocketProtocol 000000000002c048     BsdSocketLib:socket.obj
 0004:00000048       $unwind$UefiHiiServicesLibConstructor 000000000002c048     UefiHiiServicesLib:UefiHiiServicesLib.obj
 0004:00000048       $unwind$StrSize            000000000002c048     BaseLib:String.obj
 0004:00000050       $unwind$ClassifyPath       000000000002c050     DevUtility:Path.obj
 0004:00000050       $unwind$__DevSearch        000000000002c050     DevUtility:DevSearch.obj
 0004:00000050       $unwind$EslSocketClosePoll 000000000002c050     EfiSocketLib:Socket.obj
 0004:00000050       $unwind$EslTcp6LocalAddressSet 000000000002c050     EfiSocketLib:Tcp6.obj
 0004:00000050       $unwind$DecodeOneStateful  000000000002c050     LibLocale:multibyte_Utf8.obj
 0004:00000050       $unwind$AsciiStrToUnicodeStr 000000000002c050     BaseLib:String.obj
 0004:00000050       $unwind$PathCleanUpDirectories 000000000002c050     BaseLib:FilePaths.obj
 0004:00000050       $unwind$wcsrtombs          000000000002c050     LibLocale:multibyte_Utf8.obj
 0004:00000050       $unwind$UnicodeStrToAsciiStr 000000000002c050     BaseLib:String.obj
 0004:00000050       $unwind$StrnCpy            000000000002c050     BaseLib:String.obj
 0004:00000050       $unwind$EfiGetSystemConfigurationTable 000000000002c050     UefiLib:UefiLib.obj
 0004:00000050       $unwind$fflush             000000000002c050     LibStdio:fflush.obj
 0004:00000050       $unwind$EslSocketTxStart   000000000002c050     EfiSocketLib:Socket.obj
 0004:00000050       $unwind$da_ConWrite        000000000002c050     DevConsole:daConsole.obj
 0004:00000050       $unwind$EslTcp4Receive     000000000002c050     EfiSocketLib:Tcp4.obj
 0004:00000050       $unwind$da_ShellIoctl      000000000002c050     DevShell:daShell.obj
 0004:00000050       $unwind$EslTcp6Receive     000000000002c050     EfiSocketLib:Tcp6.obj
 0004:00000050       $unwind$da_ShellRename     000000000002c050     DevShell:daShell.obj
 0004:00000068       $unwind$listen             000000000002c068     BsdSocketLib:listen.obj
 0004:00000068       $unwind$FIFO_GetRDex       000000000002c068     LibContainer:Fifo.obj
 0004:00000068       $unwind$RemoveEntryList    000000000002c068     BaseLib:LinkedList.obj
 0004:00000068       $unwind$EslSocketPortCloseRxDone 000000000002c068     EfiSocketLib:Socket.obj
 0004:00000068       $unwind$FIFO_IsEmpty       000000000002c068     LibContainer:Fifo.obj
 0004:00000068       $unwind$FileHandleIsDirectory 000000000002c068     UefiFileHandleLib:UefiFileHandleLib.obj
 0004:00000068       $unwind$FIFO_GetWDex       000000000002c068     LibContainer:Fifo.obj
 0004:00000068       $unwind$lseek              000000000002c068     LibUefi:SysCalls.obj
 0004:00000068       $unwind$FIFO_Delete        000000000002c068     LibContainer:Fifo.obj
 0004:00000068       $unwind$FileHandleGetSize  000000000002c068     UefiFileHandleLib:UefiFileHandleLib.obj
 0004:00000068       $unwind$NormalizePath      000000000002c068     DevUtility:Path.obj
 0004:00000068       $unwind$EslTcp6PortClose   000000000002c068     EfiSocketLib:Tcp6.obj
 0004:00000068       $unwind$strncpyX           000000000002c068     LibString:Copying.obj
 0004:00000068       $unwind$EslUdp4RemoteAddressSet 000000000002c068     EfiSocketLib:Udp4.obj
 0004:00000068       $unwind$MtrrGetAllMtrrs    000000000002c068     MtrrLib:MtrrLib.obj
 0004:00000068       $unwind$__ultoa            000000000002c068     LibStdio:vfprintf.obj
 0004:00000068       $unwind$EncodeUtf8         000000000002c068     LibLocale:multibyte_Utf8.obj
 0004:00000068       $unwind$EfiGetCurrentTpl   000000000002c068     UefiLib:UefiLib.obj
 0004:00000068       $unwind$tzset              000000000002c068     LibTime:ZoneProc.obj
 0004:00000068       $unwind$getsecs            000000000002c068     LibTime:ZoneProc.obj
 0004:00000068       $unwind$getrule            000000000002c068     LibTime:ZoneProc.obj
 0004:00000068       $unwind$ReadUnaligned16    000000000002c068     BaseLib:Unaligned.obj
 0004:00000068       $unwind$__sseek            000000000002c068     LibStdio:stdio.obj
 0004:00000068       $unwind$AllocateZeroPool   000000000002c068     UefiMemoryAllocationLib:MemoryAllocationLib.obj
 0004:00000068       $unwind$ReadUnaligned32    000000000002c068     BaseLib:Unaligned.obj
 0004:00000068       $unwind$Efi2Time           000000000002c068     LibTime:TimeEfi.obj
 0004:00000068       $unwind$EslTcp4PortClose   000000000002c068     EfiSocketLib:Tcp4.obj
 0004:00000068       $unwind$ReadUnaligned64    000000000002c068     BaseLib:Unaligned.obj
 0004:00000068       $unwind$da_ConSeek         000000000002c068     DevConsole:daConsole.obj
 0004:00000068       $unwind$InternalAssertJumpBuffer 000000000002c068     BaseLib:SetJump.obj
 0004:00000068       $unwind$ShellIsFile        000000000002c068     UefiShellLib:UefiShellLib.obj
 0004:00000068       $unwind$IsListEmpty        000000000002c068     BaseLib:LinkedList.obj
 0004:00000068       $unwind$FIFO_Truncate      000000000002c068     LibContainer:Fifo.obj
 0004:00000068       $unwind$GetFirstNode       000000000002c068     BaseLib:LinkedList.obj
 0004:00000070       $unwind$InternalPrint      000000000002c070     UefiLib:UefiLibPrint.obj
 0004:00000070       $unwind$EslUdp4Receive     000000000002c070     EfiSocketLib:Udp4.obj
 0004:00000070       $unwind$EslSocketTxComplete 000000000002c070     EfiSocketLib:Socket.obj
 0004:00000070       $unwind$EslUdp6Receive     000000000002c070     EfiSocketLib:Udp6.obj
 0004:00000084       $unwind$Print              000000000002c084     UefiLib:UefiLibPrint.obj
 0004:00000084       $unwind$printf             000000000002c084     LibStdio:printf.obj
 0004:0000008c       $unwind$localsub           000000000002c08c     LibTime:Time.obj
 0004:0000008c       $unwind$da_ShellRead       000000000002c08c     DevShell:daShell.obj
 0004:0000008c       $unwind$da_ConRawRead      000000000002c08c     DevConsole:daConsole.obj
 0004:0000008c       $unwind$EslSocketOptionSet 000000000002c08c     EfiSocketLib:Socket.obj
 0004:0000008c       $unwind$da_ShellWrite      000000000002c08c     DevShell:daShell.obj
 0004:0000008c       $unwind$da_ShellSeek       000000000002c08c     DevShell:daShell.obj
 0004:0000009c       $unwind$da_ConRead         000000000002c09c     DevConsole:daConsole.obj
 0004:000000b4       $unwind$da_ConStat         000000000002c0b4     DevConsole:daConsole.obj
 0004:000000bc       $unwind$EslUdp4LocalAddressSet 000000000002c0bc     EfiSocketLib:Udp4.obj
 0004:000000bc       $unwind$CompareGuid        000000000002c0bc     BaseMemoryLib:MemLibGuid.obj
 0004:000000bc       $unwind$EslSocketPortClose 000000000002c0bc     EfiSocketLib:Socket.obj
 0004:000000bc       $unwind$EslUdp6LocalAddressSet 000000000002c0bc     EfiSocketLib:Udp6.obj
 0004:000000bc       $unwind$EslTcp4LocalAddressSet 000000000002c0bc     EfiSocketLib:Tcp4.obj
 0004:000000bc       $unwind$da_ConFlush        000000000002c0bc     DevConsole:daConsole.obj
 0004:000000bc       $unwind$AsciiStrnCpy       000000000002c0bc     BaseLib:String.obj
 0004:000000bc       $unwind$BslSocketCloseWork 000000000002c0bc     BsdSocketLib:close.obj
 0004:000000bc       $unwind$__DevRegister      000000000002c0bc     DevUtility:DevGenisis.obj
 0004:000000bc       $unwind$MtrrGetVariableMtrrWorker 000000000002c0bc     MtrrLib:MtrrLib.obj
 0004:000000bc       $unwind$MtrrGetFixedMtrrWorker 000000000002c0bc     MtrrLib:MtrrLib.obj
 0004:000000bc       $unwind$__multadd_D2A      000000000002c0bc     LibGdtoa:misc.obj
 0004:000000bc       $unwind$InternalMemSetMem  000000000002c0bc     BaseMemoryLib:SetMem.obj
 0004:000000bc       $unwind$StrnCmp            000000000002c0bc     BaseLib:String.obj
 0004:000000d0       $unwind$time               000000000002c0d0     LibTime:Time.obj
 0004:000000d0       $unwind$IsNodeInList       000000000002c0d0     BaseLib:LinkedList.obj
 0004:000000d0       $unwind$EslUdp6RemoteAddressGet 000000000002c0d0     EfiSocketLib:Udp6.obj
 0004:000000d0       $unwind$EslUdp6RemoteAddressSet 000000000002c0d0     EfiSocketLib:Udp6.obj
 0004:000000d0       $unwind$LShiftU64          000000000002c0d0     BaseLib:LShiftU64.obj
 0004:000000d0       $unwind$EslTcp4ConnectComplete 000000000002c0d0     EfiSocketLib:Tcp4.obj
 0004:000000d0       $unwind$EslTcp6LocalAddressGet 000000000002c0d0     EfiSocketLib:Tcp6.obj
 0004:000000d0       $unwind$BuildBitmap        000000000002c0d0     LibWchar:Searching.obj
 0004:000000d0       $unwind$wcrtomb            000000000002c0d0     LibLocale:multibyte_Utf8.obj
 0004:000000d0       $unwind$EstimateWtoM       000000000002c0d0     LibLocale:multibyte_Utf8.obj
 0004:000000d0       $unwind$InsertTailList     000000000002c0d0     BaseLib:LinkedList.obj
 0004:000000d0       $unwind$AsciiStrCmp        000000000002c0d0     BaseLib:String.obj
 0004:000000d0       $unwind$InternalBaseLibIsListValid 000000000002c0d0     BaseLib:LinkedList.obj
 0004:000000d0       $unwind$__Balloc_D2A       000000000002c0d0     LibGdtoa:misc.obj
 0004:000000d0       $unwind$da_ConClose        000000000002c0d0     DevConsole:daConsole.obj
 0004:000000d0       $unwind$__swsetup          000000000002c0d0     LibStdio:wsetup.obj
 0004:000000d0       $unwind$AsciiStrLen        000000000002c0d0     BaseLib:String.obj
 0004:000000d0       $unwind$LongJump           000000000002c0d0     BaseLib:LongJump.obj
 0004:000000d0       $unwind$EslTcp4RemoteAddressSet 000000000002c0d0     EfiSocketLib:Tcp4.obj
 0004:000000d0       $unwind$EslUdp4RemoteAddressGet 000000000002c0d0     EfiSocketLib:Udp4.obj
 0004:000000d0       $unwind$AllocateCopyPool   000000000002c0d0     UefiMemoryAllocationLib:MemoryAllocationLib.obj
 0004:000000d0       $unwind$EslTcp6RemoteAddressGet 000000000002c0d0     EfiSocketLib:Tcp6.obj
 0004:000000d0       $unwind$EslSocketPortCloseTxDone 000000000002c0d0     EfiSocketLib:Socket.obj
 0004:000000d0       $unwind$da_ShellStat       000000000002c0d0     DevShell:daShell.obj
 0004:000000d0       $unwind$EslTcp6RemoteAddressSet 000000000002c0d0     EfiSocketLib:Tcp6.obj
 0004:000000d0       $unwind$bind               000000000002c0d0     BsdSocketLib:bind.obj
 0004:000000d0       $unwind$EslUdp4LocalAddressGet 000000000002c0d0     EfiSocketLib:Udp4.obj
 0004:000000d0       $unwind$IIO_GetCursorPosition 000000000002c0d0     LibIIO:IIOutilities.obj
 0004:000000d0       $unwind$ShellLibDestructor 000000000002c0d0     UefiShellLib:UefiShellLib.obj
 0004:000000d0       $unwind$ZeroMem            000000000002c0d0     BaseMemoryLib:ZeroMemWrapper.obj
 0004:000000d0       $unwind$calloc             000000000002c0d0     LibStdLib:Malloc.obj
 0004:000000d0       $unwind$__Cons_deconstruct 000000000002c0d0     DevConsole:daConsole.obj
 0004:000000d0       $unwind$GetNextNode        000000000002c0d0     BaseLib:LinkedList.obj
 0004:000000d0       $unwind$EslTcp4LocalAddressGet 000000000002c0d0     EfiSocketLib:Tcp4.obj
 0004:000000d0       $unwind$FIFO_IsFull        000000000002c0d0     LibContainer:Fifo.obj
 0004:000000d0       $unwind$EslTcp6ConnectComplete 000000000002c0d0     EfiSocketLib:Tcp6.obj
 0004:000000d0       $unwind$EslUdp6LocalAddressGet 000000000002c0d0     EfiSocketLib:Udp6.obj
 0004:000000d0       $unwind$EslSocketPortCloseComplete 000000000002c0d0     EfiSocketLib:Socket.obj
 0004:000000d0       $unwind$New_cFIFO          000000000002c0d0     LibContainer:Fifo.obj
 0004:000000d0       $unwind$EslTcp4RemoteAddressGet 000000000002c0d0     EfiSocketLib:Tcp4.obj
 0004:000000dc       $unwind$EslSocketTransmit  000000000002c0dc     EfiSocketLib:Socket.obj
 0004:000000dc       $unwind$__Cons_construct   000000000002c0dc     DevConsole:daConsole.obj
 0004:000000f8       $unwind$ShellFindSE2       000000000002c0f8     UefiShellLib:UefiShellLib.obj
 0004:0000010c       $unwind$free               000000000002c10c     LibStdLib:Malloc.obj
 0004:0000010c       $unwind$EslTcp6PortAllocate 000000000002c10c     EfiSocketLib:Tcp6.obj
 0004:0000010c       $unwind$ShellLibConstructorWorker 000000000002c10c     UefiShellLib:UefiShellLib.obj
 0004:0000010c       $unwind$EslTcp4PortAllocate 000000000002c10c     EfiSocketLib:Tcp4.obj
 0004:00000118       $unwind$ShellOpenFileByDevicePath 000000000002c118     UefiShellLib:UefiShellLib.obj
 0004:00000134       $unwind$ShellOpenFileByName 000000000002c134     UefiShellLib:UefiShellLib.obj
 0004:00000144       $unwind$ShellFindFirstFile 000000000002c144     UefiShellLib:UefiShellLib.obj
 0004:00000154       $unwind$da_ShellMkdir      000000000002c154     DevShell:daShell.obj
 0004:00000168       $unwind$da_ShellOpen       000000000002c168     DevShell:daShell.obj
 0004:00000180       $unwind$da_ShellRmdir      000000000002c180     DevShell:daShell.obj
 0004:00000194       $unwind$__ujtoa            000000000002c194     LibStdio:vfprintf.obj
 0004:00000194       $unwind$__ctor_DevShell    000000000002c194     DevShell:daShell.obj
 0004:0000019c       $unwind$EslServiceNetworkConnect 000000000002c19c     EfiSocketLib:UseEfiSocketLib.obj
 0004:000001b0       $unwind$EslServiceNetworkDisconnect 000000000002c1b0     EfiSocketLib:UseEfiSocketLib.obj
 0004:000001c4       $unwind$EslServiceConnect  000000000002c1c4     EfiSocketLib:Service.obj
 0004:000001dc       $unwind$EslSocket          000000000002c1dc     EfiSocketLib:Socket.obj
 0004:000001ec       $unwind$EslSocketCopyFragmentedBuffer 000000000002c1ec     EfiSocketLib:Socket.obj
 0004:000001ec       $unwind$FIFO_Enqueue       000000000002c1ec     LibContainer:Fifo.obj
 0004:000001ec       $unwind$EslSocketRxComplete 000000000002c1ec     EfiSocketLib:Socket.obj
 0004:000001ec       $unwind$EslSocketAccept    000000000002c1ec     EfiSocketLib:Socket.obj
 0004:000001ec       $unwind$EslSocketGetLocalAddress 000000000002c1ec     EfiSocketLib:Socket.obj
 0004:000001ec       $unwind$EslSocketGetPeerAddress 000000000002c1ec     EfiSocketLib:Socket.obj
 0004:00000208       $unwind$EslSocketAllocate  000000000002c208     EfiSocketLib:Socket.obj
 0004:00000220       $unwind$EslSocketBind      000000000002c220     EfiSocketLib:Socket.obj
 0004:00000234       $unwind$EslSocketCloseStart 000000000002c234     EfiSocketLib:Socket.obj
 0004:0000024c       $unwind$EslUdp4SocketIsConfigured 000000000002c24c     EfiSocketLib:Udp4.obj
 0004:0000024c       $unwind$EslSocketConnect   000000000002c24c     EfiSocketLib:Socket.obj
 0004:00000268       $unwind$EslTcp6Listen      000000000002c268     EfiSocketLib:Tcp6.obj
 0004:00000268       $unwind$EslSocketIoInit    000000000002c268     EfiSocketLib:Socket.obj
 0004:00000268       $unwind$EslTcp4Listen      000000000002c268     EfiSocketLib:Tcp4.obj
 0004:00000268       $unwind$poll               000000000002c268     LibUefi:SysCalls.obj
 0004:00000268       $unwind$EslSocketListen    000000000002c268     EfiSocketLib:Socket.obj
 0004:00000280       $unwind$EslSocketOptionGet 000000000002c280     EfiSocketLib:Socket.obj
 0004:00000298       $unwind$EslSocketPacketAllocate 000000000002c298     EfiSocketLib:Socket.obj
 0004:000002ac       $unwind$__mult_D2A         000000000002c2ac     LibGdtoa:misc.obj
 0004:000002ac       $unwind$FIFO_Dequeue       000000000002c2ac     LibContainer:Fifo.obj
 0004:000002ac       $unwind$EslSocketPoll      000000000002c2ac     EfiSocketLib:Socket.obj
 0004:000002ac       $unwind$__quorem_D2A       000000000002c2ac     LibGdtoa:dmisc.obj
 0004:000002c8       $unwind$EslSocketPortAllocate 000000000002c2c8     EfiSocketLib:Socket.obj
 0004:000002e4       $unwind$EslSocketReceive   000000000002c2e4     EfiSocketLib:Socket.obj
 0004:00000300       $unwind$EslSocketRxStart   000000000002c300     EfiSocketLib:Socket.obj
 0004:00000314       $unwind$EslSocketShutdown  000000000002c314     EfiSocketLib:Socket.obj
 0004:00000314       $unwind$__grow_type_table  000000000002c314     LibStdio:vfprintf.obj
 0004:00000314       $unwind$__diff_D2A         000000000002c314     LibGdtoa:misc.obj
 0004:0000032c       $unwind$EslTcp6ConnectStart 000000000002c32c     EfiSocketLib:Tcp6.obj
 0004:0000032c       $unwind$EslTcp4ConnectStart 000000000002c32c     EfiSocketLib:Tcp4.obj
 0004:00000344       $unwind$EslTcp6ListenComplete 000000000002c344     EfiSocketLib:Tcp6.obj
 0004:00000358       $unwind$EslTcp4TxBuffer    000000000002c358     EfiSocketLib:Tcp4.obj
 0004:00000358       $unwind$EslTcp6TxBuffer    000000000002c358     EfiSocketLib:Tcp6.obj
 0004:00000370       $unwind$EslUdp4TxComplete  000000000002c370     EfiSocketLib:Udp4.obj
 0004:00000370       $unwind$EslTcp6TxComplete  000000000002c370     EfiSocketLib:Tcp6.obj
 0004:00000370       $unwind$EslTcp4TxOobComplete 000000000002c370     EfiSocketLib:Tcp4.obj
 0004:00000370       $unwind$EslTcp4TxComplete  000000000002c370     EfiSocketLib:Tcp4.obj
 0004:00000370       $unwind$EslIp4TxComplete   000000000002c370     EfiSocketLib:Ip4.obj
 0004:00000370       $unwind$EslTcp6TxOobComplete 000000000002c370     EfiSocketLib:Tcp6.obj
 0004:00000370       $unwind$EslUdp6TxComplete  000000000002c370     EfiSocketLib:Udp6.obj
 0004:00000378       $unwind$EslTcp6VerifyLocalIpAddress 000000000002c378     EfiSocketLib:Tcp6.obj
 0004:00000378       $unwind$EslUdp6VerifyLocalIpAddress 000000000002c378     EfiSocketLib:Udp6.obj
 0004:00000388       $unwind$EslIp4Receive      000000000002c388     EfiSocketLib:Ip4.obj
 0004:00000388       $unwind$realloc            000000000002c388     LibStdLib:Malloc.obj
 0004:000003a0       $unwind$EslIp4SocketIsConfigured 000000000002c3a0     EfiSocketLib:Ip4.obj
 0004:000003bc       $unwind$EslIp4TxBuffer     000000000002c3bc     EfiSocketLib:Ip4.obj
 0004:000003bc       $unwind$EslUdp6TxBuffer    000000000002c3bc     EfiSocketLib:Udp6.obj
 0004:000003d8       $unwind$EslTcp4VerifyLocalIpAddress 000000000002c3d8     EfiSocketLib:Tcp4.obj
 0004:000003d8       $unwind$EslUdp4VerifyLocalIpAddress 000000000002c3d8     EfiSocketLib:Udp4.obj
 0004:000003d8       $unwind$EslIp4VerifyLocalIpAddress 000000000002c3d8     EfiSocketLib:Ip4.obj
 0004:000003e8       $unwind$EslTcp4ListenComplete 000000000002c3e8     EfiSocketLib:Tcp4.obj
 0004:000003fc       $unwind$EslUdp4TxBuffer    000000000002c3fc     EfiSocketLib:Udp4.obj
 0004:00000414       $unwind$EslUdp6SocketIsConfigured 000000000002c414     EfiSocketLib:Udp6.obj
 0004:0000042c       $unwind$main               000000000002c42c     WebServer:WebServer.obj
 0004:0000042c       $unwind$PortAdd            000000000002c42c     WebServer:WebServer.obj
 0004:00000434       $unwind$HttpFlush          000000000002c434     WebServer:HTTP.obj
 0004:00000434       $unwind$PortRemove         000000000002c434     WebServer:WebServer.obj
 0004:0000043c       $unwind$HttpSendDump       000000000002c43c     WebServer:HTTP.obj
 0004:0000043c       $unwind$PortWork           000000000002c43c     WebServer:WebServer.obj
 0004:00000444       $unwind$SocketPoll         000000000002c444     WebServer:WebServer.obj
 0004:0000044c       $unwind$WebServerListen    000000000002c44c     WebServer:WebServer.obj
 0004:00000454       $unwind$HttpMatch          000000000002c454     WebServer:HTTP.obj
 0004:0000045c       $unwind$HttpPageNotFound   000000000002c45c     WebServer:HTTP.obj
 0004:0000045c       $unwind$HelloPage          000000000002c45c     WebServer:Hello.obj
 0004:0000045c       $unwind$RebootPage         000000000002c45c     WebServer:Reboot.obj
 0004:0000045c       $unwind$FirmwarePage       000000000002c45c     WebServer:Firmware.obj
 0004:0000045c       $unwind$ExitPage           000000000002c45c     WebServer:Exit.obj
 0004:0000045c       $unwind$TableTrailer       000000000002c45c     WebServer:SystemTable.obj
 0004:0000045c       $unwind$HttpSendByte       000000000002c45c     WebServer:HTTP.obj
 0004:0000045c       $unwind$HttpPageHeader     000000000002c45c     WebServer:HTTP.obj
 0004:0000045c       $unwind$HttpSendAnsiString 000000000002c45c     WebServer:HTTP.obj
 0004:00000464       $unwind$HttpSendIpAddress  000000000002c464     WebServer:HTTP.obj
 0004:00000464       $unwind$HttpPageTrailer    000000000002c464     WebServer:HTTP.obj
 0004:00000464       $unwind$AcpiRsdtPage       000000000002c464     WebServer:ACPI.obj
 0004:0000046c       $unwind$PortsPage          000000000002c46c     WebServer:Ports.obj
 0004:0000046c       $unwind$MemoryMapPage      000000000002c46c     WebServer:MemoryMap.obj
 0004:0000046c       $unwind$HttpRequest        000000000002c46c     WebServer:HTTP.obj
 0004:00000474       $unwind$RowBytes           000000000002c474     WebServer:ACPI.obj
 0004:00000474       $unwind$HttpSend           000000000002c474     WebServer:HTTP.obj
 0004:0000047c       $unwind$RowUnicodeString   000000000002c47c     WebServer:SystemTable.obj
 0004:0000047c       $unwind$RowHexValue        000000000002c47c     WebServer:SystemTable.obj
 0004:0000047c       $unwind$RowDump            000000000002c47c     WebServer:ACPI.obj
 0004:0000047c       $unwind$RowGenericAddress  000000000002c47c     WebServer:ACPI.obj
 0004:0000047c       $unwind$HttpSendCharacter  000000000002c47c     WebServer:HTTP.obj
 0004:0000047c       $unwind$RowDecimalValue    000000000002c47c     WebServer:SystemTable.obj
 0004:0000047c       $unwind$RowPointer         000000000002c47c     WebServer:SystemTable.obj
 0004:0000047c       $unwind$MtrrDisplayFixedRow 000000000002c47c     WebServer:Mtrr.obj
 0004:0000047c       $unwind$TableHeader        000000000002c47c     WebServer:SystemTable.obj
 0004:0000047c       $unwind$HttpSendHexBits    000000000002c47c     WebServer:HTTP.obj
 0004:0000047c       $unwind$RowRevision        000000000002c47c     WebServer:SystemTable.obj
 0004:00000484       $unwind$HttpSendUnicodeString 000000000002c484     WebServer:HTTP.obj
 0004:00000484       $unwind$BootServicesTablePage 000000000002c484     WebServer:BootServicesTable.obj
 0004:00000484       $unwind$DxeServicesTablePage 000000000002c484     WebServer:DxeServicesTable.obj
 0004:00000484       $unwind$SystemTablePage    000000000002c484     WebServer:SystemTable.obj
 0004:00000484       $unwind$HttpSendHexValue   000000000002c484     WebServer:HTTP.obj
 0004:00000484       $unwind$AcpiTcpaPage       000000000002c484     WebServer:ACPI.obj
 0004:00000484       $unwind$AcpiBgrtPage       000000000002c484     WebServer:ACPI.obj
 0004:00000484       $unwind$HttpSendGuid       000000000002c484     WebServer:HTTP.obj
 0004:00000484       $unwind$AcpiHpetPage       000000000002c484     WebServer:ACPI.obj
 0004:00000484       $unwind$AcpiMcfgPage       000000000002c484     WebServer:ACPI.obj
 0004:00000484       $unwind$EfiTableHeader     000000000002c484     WebServer:SystemTable.obj
 0004:00000484       $unwind$AcpiRsdp10Page     000000000002c484     WebServer:ACPI.obj
 0004:00000484       $unwind$AcpiApicPage       000000000002c484     WebServer:ACPI.obj
 0004:00000484       $unwind$AcpiSsdtPage       000000000002c484     WebServer:ACPI.obj
 0004:00000484       $unwind$RuntimeSservicesTablePage 000000000002c484     WebServer:RuntimeServicesTable.obj
 0004:00000484       $unwind$IndexPage          000000000002c484     WebServer:Index.obj
 0004:00000484       $unwind$AcpiUefiPage       000000000002c484     WebServer:ACPI.obj
 0004:00000484       $unwind$AcpiRsdp30Page     000000000002c484     WebServer:ACPI.obj
 0004:0000048c       $unwind$HttpSendIp6Value   000000000002c48c     WebServer:HTTP.obj
 0004:00000494       $unwind$DhcpOptionsPage    000000000002c494     WebServer:DhcpOptions.obj
 0004:00000494       $unwind$HttpSendValue      000000000002c494     WebServer:HTTP.obj
 0004:0000049c       $unwind$LocateRsdt         000000000002c49c     WebServer:ACPI.obj
 0004:000004a4       $unwind$LocateTable        000000000002c4a4     WebServer:ACPI.obj
 0004:000004ac       $unwind$RowGuid            000000000002c4ac     WebServer:ConfigurationTable.obj
 0004:000004ac       $unwind$RowAnsiArray       000000000002c4ac     WebServer:ACPI.obj
 0004:000004b4       $unwind$AcpiDsdtPage       000000000002c4b4     WebServer:ACPI.obj
 0004:000004b4       $unwind$AcpiFadtPage       000000000002c4b4     WebServer:ACPI.obj
 0004:000004b4       $unwind$ConfigurationTablePage 000000000002c4b4     WebServer:ConfigurationTable.obj
 0004:000004bc       $unwind$HandlePage         000000000002c4bc     WebServer:Handles.obj
 0004:000004c4       $unwind$MemoryTypeRegistersPage 000000000002c4c4     WebServer:Mtrr.obj
 0004:000004cc       $unwind$timesub            000000000002c4cc     LibTime:Time.obj
 0004:000004e0       $unwind$normalize_overflow 000000000002c4e0     LibTime:Time.obj
 0004:000004e8       $unwind$time2sub           000000000002c4e8     LibTime:Time.obj
 0004:00000500       $unwind$time1              000000000002c500     LibTime:Time.obj
 0004:00000520       $unwind$Time2Efi           000000000002c520     LibTime:TimeEfi.obj
 0004:0000052c       $unwind$transtime          000000000002c52c     LibTime:ZoneProc.obj
 0004:00000544       $unwind$tzparse            000000000002c544     LibTime:ZoneProc.obj
 0004:0000055c       $unwind$ParsePath          000000000002c55c     DevUtility:Path.obj
 0004:00000574       $unwind$open               000000000002c574     LibUefi:SysCalls.obj
 0004:00000588       $unwind$__sbprintf         000000000002c588     LibStdio:vfprintf.obj
 0004:0000059c       $unwind$__wcsconv          000000000002c59c     LibStdio:vfprintf.obj
 0004:000005ac       $unwind$__vfprintf_unlocked 000000000002c5ac     LibStdio:vfprintf.obj
 0004:000005c8       $unwind$__find_arguments   000000000002c5c8     LibStdio:vfprintf.obj
 0004:000005e0       $unwind$cvt                000000000002c5e0     LibStdio:vfprintf.obj
 0004:00000600       $unwind$exponent           000000000002c600     LibStdio:vfprintf.obj
 0004:00000608       $unwind$__sfvwrite         000000000002c608     LibStdio:fvwrite.obj
 0004:00000620       $unwind$__smakebuf         000000000002c620     LibStdio:makebuf.obj
 0004:00000630       $unwind$__swhatbuf         000000000002c630     LibStdio:makebuf.obj
 0004:00000644       $unwind$malloc             000000000002c644     LibStdLib:Malloc.obj
 0004:00000650       $unwind$AsciiSPrint        000000000002c650     BasePrintLib:PrintLib.obj
 0004:00000658       $unwind$BasePrintLibValueToString 000000000002c658     BasePrintLib:PrintLibInternal.obj
 0004:00000658       $unwind$FileHandleGetInfo  000000000002c658     UefiFileHandleLib:UefiFileHandleLib.obj
 0004:00000664       $unwind$BasePrintLibSPrintMarker 000000000002c664     BasePrintLib:PrintLibInternal.obj
 0004:00000680       $unwind$BasePrintLibSPrint 000000000002c680     BasePrintLib:PrintLibInternal.obj
 0004:00000688       $unwind$recv               000000000002c688     BsdSocketLib:recv.obj
 0004:00000688       $unwind$__assert           000000000002c688     LibC:assert.obj
 0004:00000688       $unwind$BslSocketRead      000000000002c688     BsdSocketLib:read.obj
 0004:00000688       $unwind$IsMtrrSupported    000000000002c688     MtrrLib:MtrrLib.obj
 0004:00000690       $unwind$IIO_Read           000000000002c690     LibIIO:IIO.obj
 0004:000006a4       $unwind$IIO_Write          000000000002c6a4     LibIIO:IIO.obj
 0004:000006bc       $unwind$IIO_Echo           000000000002c6bc     LibIIO:IIO.obj
 0004:000006d8       $unwind$IIO_Delete         000000000002c6d8     LibIIO:IIO.obj
 0004:000006e0       $unwind$New_cIIO           000000000002c6e0     LibIIO:IIO.obj
 0004:000006ec       $unwind$IIO_GetOutputSize  000000000002c6ec     LibIIO:IIOutilities.obj
 0004:00000700       $unwind$IIO_WriteOne       000000000002c700     LibIIO:IIOwrite.obj
 0004:0000071c       $unwind$IIO_EchoOne        000000000002c71c     LibIIO:IIOecho.obj
 0004:00000734       $unwind$IIO_CanonRead      000000000002c734     LibIIO:CanonRead.obj
 0004:0000074c       $unwind$socket             000000000002c74c     BsdSocketLib:socket.obj
 0004:00000760       $unwind$AcceptWork         000000000002c760     BsdSocketLib:accept.obj
 0004:00000778       $unwind$send               000000000002c778     BsdSocketLib:send.obj
 0004:00000790       $unwind$recvfrom           000000000002c790     BsdSocketLib:recvfrom.obj
 0004:000007ac       $unwind$__dtoa             000000000002c7ac     LibGdtoa:dtoa.obj
 0004:000007cc       $unwind$__lshift_D2A       000000000002c7cc     LibGdtoa:misc.obj
 0004:000007e8       $unwind$__d2b_D2A          000000000002c7e8     LibGdtoa:misc.obj
 0004:000007f4       $unwind$StrnCat            000000000002c7f4     BaseLib:String.obj
